Archive member included to satisfy reference by file (symbol)

obj_cooja/mtype603.a(simEnvChange.o)
                              obj_cooja/mtype603.o (simDontFallAsleep)
obj_cooja/mtype603.a(cooja_mt.o)
                              obj_cooja/mtype603.o (cooja_mt_start)
obj_cooja/mtype603.a(cooja_mtarch.o)
                              obj_cooja/mtype603.a(cooja_mt.o) (cooja_mtarch_start)
obj_cooja/mtype603.a(rtimer-arch.o)
                              obj_cooja/mtype603.o (rtimer_arch_check)
obj_cooja/mtype603.a(beep.o)  obj_cooja/mtype603.o (beep_interface)
obj_cooja/mtype603.a(button-sensor.o)
                              obj_cooja/mtype603.o (button_interface)
obj_cooja/mtype603.a(leds-arch.o)
                              obj_cooja/mtype603.o (leds_interface)
obj_cooja/mtype603.a(moteid.o)
                              obj_cooja/mtype603.o (moteid_interface)
obj_cooja/mtype603.a(pir-sensor.o)
                              obj_cooja/mtype603.o (pir_interface)
obj_cooja/mtype603.a(rs232.o)
                              obj_cooja/mtype603.o (rs232_interface)
obj_cooja/mtype603.a(vib-sensor.o)
                              obj_cooja/mtype603.o (vib_interface)
obj_cooja/mtype603.a(clock.o)
                              obj_cooja/mtype603.o (clock_interface)
obj_cooja/mtype603.a(cooja-log.o)
                              obj_cooja/mtype603.o (simlog_interface)
obj_cooja/mtype603.a(cfs-cooja.o)
                              obj_cooja/mtype603.o (cfs_interface)
obj_cooja/mtype603.a(cooja-radio.o)
                              obj_cooja/mtype603.o (radio_interface)
obj_cooja/mtype603.a(eeprom.o)
                              obj_cooja/mtype603.o (eeprom_interface)
obj_cooja/mtype603.a(random.o)
                              obj_cooja/mtype603.a(moteid.o) (random_init)
obj_cooja/mtype603.a(sensors.o)
                              obj_cooja/mtype603.a(button-sensor.o) (sensors_changed)
obj_cooja/mtype603.a(leds.o)  udp-client.o (leds_on)
obj_cooja/mtype603.a(mqtt.o)  udp-client.o (mqtt_disconnect)
obj_cooja/mtype603.a(contiki-main.o)
                              obj_cooja/mtype603.o (main)
obj_cooja/mtype603.a(autostart.o)
                              obj_cooja/mtype603.a(contiki-main.o) (autostart_start)
obj_cooja/mtype603.a(ctimer.o)
                              obj_cooja/mtype603.a(contiki-main.o) (ctimer_init)
obj_cooja/mtype603.a(energest.o)
                              obj_cooja/mtype603.a(contiki-main.o) (energest_init)
obj_cooja/mtype603.a(etimer.o)
                              obj_cooja/mtype603.a(contiki-main.o) (etimer_process)
obj_cooja/mtype603.a(log.o)   obj_cooja/mtype603.a(contiki-main.o) (curr_log_level_main)
obj_cooja/mtype603.a(process.o)
                              udp-client.o (process_current)
obj_cooja/mtype603.a(rtimer.o)
                              obj_cooja/mtype603.a(contiki-main.o) (rtimer_init)
obj_cooja/mtype603.a(node-id.o)
                              udp-client.o (node_id)
obj_cooja/mtype603.a(timer.o)
                              obj_cooja/mtype603.a(button-sensor.o) (timer_set)
obj_cooja/mtype603.a(serial-line.o)
                              obj_cooja/mtype603.a(rs232.o) (serial_line_input_byte)
obj_cooja/mtype603.a(list.o)  obj_cooja/mtype603.a(mqtt.o) (list_init)
obj_cooja/mtype603.a(ringbuf.o)
                              obj_cooja/mtype603.a(serial-line.o) (ringbuf_init)
obj_cooja/mtype603.a(packetbuf.o)
                              obj_cooja/mtype603.a(cooja-radio.o) (packetbuf_clear)
obj_cooja/mtype603.a(netstack.o)
                              obj_cooja/mtype603.a(contiki-main.o) (netstack_init)
obj_cooja/mtype603.a(linkaddr.o)
                              udp-client.o (linkaddr_node_addr)
obj_cooja/mtype603.a(csma.o)  obj_cooja/mtype603.a(cooja-radio.o) (csma_driver)
obj_cooja/mtype603.a(csma-output.o)
                              obj_cooja/mtype603.a(csma.o) (csma_output_packet)
obj_cooja/mtype603.a(uip-ds6.o)
                              obj_cooja/mtype603.a(contiki-main.o) (uip_ds6_get_link_local)
obj_cooja/mtype603.a(tcp-socket.o)
                              obj_cooja/mtype603.a(mqtt.o) (tcp_socket_register)
obj_cooja/mtype603.a(tcpip.o)
                              obj_cooja/mtype603.a(tcp-socket.o) (tcpip_event)
obj_cooja/mtype603.a(uip-ds6-route.o)
                              obj_cooja/mtype603.a(uip-ds6.o) (uip_ds6_route_init)
obj_cooja/mtype603.a(uip6.o)  obj_cooja/mtype603.a(contiki-main.o) (uip_lladdr)
obj_cooja/mtype603.a(uip-ds6-nbr.o)
                              obj_cooja/mtype603.a(uip-ds6.o) (uip_ds6_neighbors_init)
obj_cooja/mtype603.a(uip-nd6.o)
                              obj_cooja/mtype603.a(uip6.o) (uip_nd6_init)
obj_cooja/mtype603.a(simple-udp.o)
                              udp-client.o (simple_udp_sendto)
obj_cooja/mtype603.a(sicslowpan.o)
                              obj_cooja/mtype603.a(contiki-main.o) (sicslowpan_driver)
obj_cooja/mtype603.a(uiplib.o)
                              obj_cooja/mtype603.a(mqtt.o) (uiplib_ip6addrconv)
obj_cooja/mtype603.a(rpl.o)   udp-client.o (rpl_lite_driver)
obj_cooja/mtype603.a(rpl-icmp6.o)
                              obj_cooja/mtype603.a(rpl.o) (rpl_icmp6_init)
obj_cooja/mtype603.a(rpl-dag.o)
                              obj_cooja/mtype603.a(rpl.o) (curr_instance)
obj_cooja/mtype603.a(rpl-dag-root.o)
                              obj_cooja/mtype603.a(rpl.o) (rpl_dag_root_is_root)
obj_cooja/mtype603.a(watchdog.o)
                              obj_cooja/mtype603.a(contiki-main.o) (watchdog_init)
obj_cooja/mtype603.a(stimer.o)
                              obj_cooja/mtype603.a(uip-ds6.o) (stimer_set)
obj_cooja/mtype603.a(memb.o)  obj_cooja/mtype603.a(csma-output.o) (memb_init)
obj_cooja/mtype603.a(queuebuf.o)
                              obj_cooja/mtype603.a(csma-output.o) (queuebuf_init)
obj_cooja/mtype603.a(nbr-table.o)
                              obj_cooja/mtype603.a(uip-ds6-nbr.o) (nbr_table_register)
obj_cooja/mtype603.a(link-stats.o)
                              obj_cooja/mtype603.a(sicslowpan.o) (link_stats_packet_sent)
obj_cooja/mtype603.a(mac-sequence.o)
                              obj_cooja/mtype603.a(csma.o) (mac_sequence_is_duplicate)
obj_cooja/mtype603.a(mac.o)   obj_cooja/mtype603.a(csma-output.o) (mac_call_sent_callback)
obj_cooja/mtype603.a(framer-802154.o)
                              obj_cooja/mtype603.a(csma.o) (framer_802154)
obj_cooja/mtype603.a(frame802154.o)
                              obj_cooja/mtype603.a(framer-802154.o) (frame802154_get_pan_id)
obj_cooja/mtype603.a(uipbuf.o)
                              obj_cooja/mtype603.a(sicslowpan.o) (uipbuf_get_attr)
obj_cooja/mtype603.a(uip-icmp6.o)
                              obj_cooja/mtype603.a(uip6.o) (uip_icmp6_input)
obj_cooja/mtype603.a(uip-sr.o)
                              obj_cooja/mtype603.a(rpl-dag-root.o) (uip_sr_num_nodes)
obj_cooja/mtype603.a(uip-packetqueue)
                              obj_cooja/mtype603.a(uip-ds6-nbr.o) (uip_packetqueue_new)
obj_cooja/mtype603.a(uip-udp-packet.)
                              obj_cooja/mtype603.a(simple-udp.o) (uip_udp_packet_sendto)
obj_cooja/mtype603.a(rpl-nbr-policy.)
                              obj_cooja/mtype603.a(nbr-table.o) (rpl_nbr_policy_find_removable)
obj_cooja/mtype603.a(rpl-neighbor.o)
                              obj_cooja/mtype603.a(rpl-dag.o) (rpl_neighbors)
obj_cooja/mtype603.a(rpl-timers.o)
                              obj_cooja/mtype603.a(rpl-dag.o) (rpl_timers_schedule_periodic_dis)
obj_cooja/mtype603.a(rpl-ext-header.)
                              obj_cooja/mtype603.a(rpl.o) (rpl_ext_header_srh_get_next_hop)
obj_cooja/mtype603.a(rpl-mrhof.o)
                              obj_cooja/mtype603.a(rpl-dag.o) (rpl_mrhof)

Allocating common symbols
Common symbol       size              file

simButtonIsActive   0x1               obj_cooja/mtype603.a(button-sensor.o)
simButtonIsDown     0x1               obj_cooja/mtype603.a(button-sensor.o)
simOutDataBuffer    0x80              obj_cooja/mtype603.a(cooja-radio.o)
uip_ds6_prefix_list
                    0x60              obj_cooja/mtype603.a(uip-ds6.o)
linkaddr_node_addr  0x8               obj_cooja/mtype603.a(linkaddr.o)
simSerialReceivingFlag
                    0x1               obj_cooja/mtype603.a(rs232.o)
simEEPROMData       0x400             obj_cooja/mtype603.a(eeprom.o)
periodic_timer      0x20              obj_cooja/mtype603.a(link-stats.o)
simLoggedLength     0x4               obj_cooja/mtype603.a(cooja-log.o)
simSerialReceivingLength
                    0x4               obj_cooja/mtype603.a(rs232.o)
simEtimerPending    0x4               obj_cooja/mtype603.a(simEnvChange.o)
uip_slen            0x2               obj_cooja/mtype603.a(uip6.o)
uip_ds6_timer_periodic
                    0x10              obj_cooja/mtype603.a(uip-ds6.o)
uip_acc32           0x4               obj_cooja/mtype603.a(uip6.o)
eb_per_time_source  0x14              obj_cooja/mtype603.a(contiki-main.o)
unicast_per_neighbor_rpl_storing
                    0x14              obj_cooja/mtype603.a(contiki-main.o)
uip_conns           0x180             obj_cooja/mtype603.a(uip6.o)
simVibChanged       0x1               obj_cooja/mtype603.a(vib-sensor.o)
simRtimerPending    0x4               obj_cooja/mtype603.a(rtimer-arch.o)
uip_ds6_netif_addr_list_offset
                    0x1               obj_cooja/mtype603.a(uip-ds6.o)
uip_lladdr          0x8               obj_cooja/mtype603.a(uip6.o)
simProcessRunValue  0x4               obj_cooja/mtype603.a(simEnvChange.o)
serial_line_event_message
                    0x1               obj_cooja/mtype603.a(serial-line.o)
uip_appdata         0x4               obj_cooja/mtype603.a(uip6.o)
referenceVar        0x4               obj_cooja/mtype603.o
simCurrentTime      0x4               obj_cooja/mtype603.a(clock.o)
simVibIsActive      0x1               obj_cooja/mtype603.a(vib-sensor.o)
unicast_per_neighbor_rpl_ns
                    0x14              obj_cooja/mtype603.a(contiki-main.o)
uip_ds6_if          0xf8              obj_cooja/mtype603.a(uip-ds6.o)
uip_flags           0x1               obj_cooja/mtype603.a(uip6.o)
uip_ds6_timer_ra    0x8               obj_cooja/mtype603.a(uip-ds6.o)
default_common      0x14              obj_cooja/mtype603.a(contiki-main.o)
mqtt_update_event   0x1               obj_cooja/mtype603.a(mqtt.o)
simSerialReceivingData
                    0x800             obj_cooja/mtype603.a(rs232.o)
simLoggedFlag       0x1               obj_cooja/mtype603.a(cooja-log.o)
packetbuf_attrs     0x1a              obj_cooja/mtype603.a(packetbuf.o)
uip_ds6_addr_size   0x1               obj_cooja/mtype603.a(uip-ds6.o)
uip_aligned_buf     0x500             obj_cooja/mtype603.a(uip6.o)
simRtimerCurrentTicks
                    0x8               obj_cooja/mtype603.a(rtimer-arch.o)
simRandomSeed       0x4               obj_cooja/mtype603.a(moteid.o)
rpl_multicast_addr  0x10              obj_cooja/mtype603.a(rpl.o)
simLoggedData       0x2000            obj_cooja/mtype603.a(cooja-log.o)
simLedsValue        0x1               obj_cooja/mtype603.a(leds-arch.o)
simEtimerNextExpirationTime
                    0x4               obj_cooja/mtype603.a(simEnvChange.o)
uip_listenports     0x28              obj_cooja/mtype603.a(uip6.o)
uip_len             0x2               obj_cooja/mtype603.a(uip6.o)
simButtonChanged    0x1               obj_cooja/mtype603.a(button-sensor.o)
simRtimerNextExpirationTime
                    0x8               obj_cooja/mtype603.a(rtimer-arch.o)
simPirIsActive      0x1               obj_cooja/mtype603.a(pir-sensor.o)
simInDataBuffer     0x80              obj_cooja/mtype603.a(cooja-radio.o)
simPirChanged       0x1               obj_cooja/mtype603.a(pir-sensor.o)
simBeeped           0x1               obj_cooja/mtype603.a(beep.o)
tcpip_event         0x1               obj_cooja/mtype603.a(tcpip.o)
uip_sappdata        0x4               obj_cooja/mtype603.a(uip6.o)
sensors_event       0x1               obj_cooja/mtype603.a(sensors.o)
uip_udp_conns       0x100             obj_cooja/mtype603.a(uip6.o)
packetbuf_addrs     0x10              obj_cooja/mtype603.a(packetbuf.o)
uip_udp_conn        0x4               obj_cooja/mtype603.a(uip6.o)
simMoteIDChanged    0x1               obj_cooja/mtype603.a(moteid.o)
sensors_flags       0x4               obj_cooja/mtype603.o
uip_next_hdr        0x4               obj_cooja/mtype603.a(uip6.o)
curr_instance       0x164             obj_cooja/mtype603.a(rpl-dag.o)
simMoteID           0x4               obj_cooja/mtype603.a(moteid.o)
uip_conn            0x4               obj_cooja/mtype603.a(uip6.o)

Discarded input sections

 .note.GNU-stack
                0x0000000000000000        0x0 /usr/lib/gcc/i686-linux-gnu/5/../../../i386-linux-gnu/crti.o
 .group         0x0000000000000000        0x8 /usr/lib/gcc/i686-linux-gnu/5/crtbeginS.o
 .group         0x0000000000000000        0x8 /usr/lib/gcc/i686-linux-gnu/5/crtbeginS.o
 .text.__x86.get_pc_thunk.bx
                0x0000000000000000        0x4 /usr/lib/gcc/i686-linux-gnu/5/crtbeginS.o
 .note.GNU-stack
                0x0000000000000000        0x0 /usr/lib/gcc/i686-linux-gnu/5/crtbeginS.o
 .note.GNU-stack
                0x0000000000000000        0x0 udp-client.o
 .note.GNU-stack
                0x0000000000000000        0x0 obj_cooja/mtype603.o
 .note.GNU-stack
                0x0000000000000000        0x0 obj_cooja/mtype603.a(simEnvChange.o)
 .note.GNU-stack
                0x0000000000000000        0x0 obj_cooja/mtype603.a(cooja_mt.o)
 .note.GNU-stack
                0x0000000000000000        0x0 obj_cooja/mtype603.a(cooja_mtarch.o)
 .note.GNU-stack
                0x0000000000000000        0x0 obj_cooja/mtype603.a(rtimer-arch.o)
 .note.GNU-stack
                0x0000000000000000        0x0 obj_cooja/mtype603.a(beep.o)
 .note.GNU-stack
                0x0000000000000000        0x0 obj_cooja/mtype603.a(button-sensor.o)
 .note.GNU-stack
                0x0000000000000000        0x0 obj_cooja/mtype603.a(leds-arch.o)
 .note.GNU-stack
                0x0000000000000000        0x0 obj_cooja/mtype603.a(moteid.o)
 .note.GNU-stack
                0x0000000000000000        0x0 obj_cooja/mtype603.a(pir-sensor.o)
 .note.GNU-stack
                0x0000000000000000        0x0 obj_cooja/mtype603.a(rs232.o)
 .note.GNU-stack
                0x0000000000000000        0x0 obj_cooja/mtype603.a(vib-sensor.o)
 .note.GNU-stack
                0x0000000000000000        0x0 obj_cooja/mtype603.a(clock.o)
 .note.GNU-stack
                0x0000000000000000        0x0 obj_cooja/mtype603.a(cooja-log.o)
 .note.GNU-stack
                0x0000000000000000        0x0 obj_cooja/mtype603.a(cfs-cooja.o)
 .note.GNU-stack
                0x0000000000000000        0x0 obj_cooja/mtype603.a(cooja-radio.o)
 .note.GNU-stack
                0x0000000000000000        0x0 obj_cooja/mtype603.a(eeprom.o)
 .note.GNU-stack
                0x0000000000000000        0x0 obj_cooja/mtype603.a(random.o)
 .note.GNU-stack
                0x0000000000000000        0x0 obj_cooja/mtype603.a(sensors.o)
 .note.GNU-stack
                0x0000000000000000        0x0 obj_cooja/mtype603.a(leds.o)
 .note.GNU-stack
                0x0000000000000000        0x0 obj_cooja/mtype603.a(mqtt.o)
 .note.GNU-stack
                0x0000000000000000        0x0 obj_cooja/mtype603.a(contiki-main.o)
 .note.GNU-stack
                0x0000000000000000        0x0 obj_cooja/mtype603.a(autostart.o)
 .note.GNU-stack
                0x0000000000000000        0x0 obj_cooja/mtype603.a(ctimer.o)
 .note.GNU-stack
                0x0000000000000000        0x0 obj_cooja/mtype603.a(energest.o)
 .note.GNU-stack
                0x0000000000000000        0x0 obj_cooja/mtype603.a(etimer.o)
 .note.GNU-stack
                0x0000000000000000        0x0 obj_cooja/mtype603.a(log.o)
 .note.GNU-stack
                0x0000000000000000        0x0 obj_cooja/mtype603.a(process.o)
 .note.GNU-stack
                0x0000000000000000        0x0 obj_cooja/mtype603.a(rtimer.o)
 .note.GNU-stack
                0x0000000000000000        0x0 obj_cooja/mtype603.a(node-id.o)
 .note.GNU-stack
                0x0000000000000000        0x0 obj_cooja/mtype603.a(timer.o)
 .note.GNU-stack
                0x0000000000000000        0x0 obj_cooja/mtype603.a(serial-line.o)
 .note.GNU-stack
                0x0000000000000000        0x0 obj_cooja/mtype603.a(list.o)
 .note.GNU-stack
                0x0000000000000000        0x0 obj_cooja/mtype603.a(ringbuf.o)
 .note.GNU-stack
                0x0000000000000000        0x0 obj_cooja/mtype603.a(packetbuf.o)
 .note.GNU-stack
                0x0000000000000000        0x0 obj_cooja/mtype603.a(netstack.o)
 .note.GNU-stack
                0x0000000000000000        0x0 obj_cooja/mtype603.a(linkaddr.o)
 .note.GNU-stack
                0x0000000000000000        0x0 obj_cooja/mtype603.a(csma.o)
 .note.GNU-stack
                0x0000000000000000        0x0 obj_cooja/mtype603.a(csma-output.o)
 .note.GNU-stack
                0x0000000000000000        0x0 obj_cooja/mtype603.a(uip-ds6.o)
 .note.GNU-stack
                0x0000000000000000        0x0 obj_cooja/mtype603.a(tcp-socket.o)
 .note.GNU-stack
                0x0000000000000000        0x0 obj_cooja/mtype603.a(tcpip.o)
 .note.GNU-stack
                0x0000000000000000        0x0 obj_cooja/mtype603.a(uip-ds6-route.o)
 .note.GNU-stack
                0x0000000000000000        0x0 obj_cooja/mtype603.a(uip6.o)
 .note.GNU-stack
                0x0000000000000000        0x0 obj_cooja/mtype603.a(uip-ds6-nbr.o)
 .note.GNU-stack
                0x0000000000000000        0x0 obj_cooja/mtype603.a(uip-nd6.o)
 .note.GNU-stack
                0x0000000000000000        0x0 obj_cooja/mtype603.a(simple-udp.o)
 .note.GNU-stack
                0x0000000000000000        0x0 obj_cooja/mtype603.a(sicslowpan.o)
 .note.GNU-stack
                0x0000000000000000        0x0 obj_cooja/mtype603.a(uiplib.o)
 .note.GNU-stack
                0x0000000000000000        0x0 obj_cooja/mtype603.a(rpl.o)
 .note.GNU-stack
                0x0000000000000000        0x0 obj_cooja/mtype603.a(rpl-icmp6.o)
 .note.GNU-stack
                0x0000000000000000        0x0 obj_cooja/mtype603.a(rpl-dag.o)
 .note.GNU-stack
                0x0000000000000000        0x0 obj_cooja/mtype603.a(rpl-dag-root.o)
 .note.GNU-stack
                0x0000000000000000        0x0 obj_cooja/mtype603.a(watchdog.o)
 .note.GNU-stack
                0x0000000000000000        0x0 obj_cooja/mtype603.a(stimer.o)
 .note.GNU-stack
                0x0000000000000000        0x0 obj_cooja/mtype603.a(memb.o)
 .note.GNU-stack
                0x0000000000000000        0x0 obj_cooja/mtype603.a(queuebuf.o)
 .note.GNU-stack
                0x0000000000000000        0x0 obj_cooja/mtype603.a(nbr-table.o)
 .note.GNU-stack
                0x0000000000000000        0x0 obj_cooja/mtype603.a(link-stats.o)
 .note.GNU-stack
                0x0000000000000000        0x0 obj_cooja/mtype603.a(mac-sequence.o)
 .note.GNU-stack
                0x0000000000000000        0x0 obj_cooja/mtype603.a(mac.o)
 .note.GNU-stack
                0x0000000000000000        0x0 obj_cooja/mtype603.a(framer-802154.o)
 .note.GNU-stack
                0x0000000000000000        0x0 obj_cooja/mtype603.a(frame802154.o)
 .note.GNU-stack
                0x0000000000000000        0x0 obj_cooja/mtype603.a(uipbuf.o)
 .note.GNU-stack
                0x0000000000000000        0x0 obj_cooja/mtype603.a(uip-icmp6.o)
 .note.GNU-stack
                0x0000000000000000        0x0 obj_cooja/mtype603.a(uip-sr.o)
 .note.GNU-stack
                0x0000000000000000        0x0 obj_cooja/mtype603.a(uip-packetqueue)
 .note.GNU-stack
                0x0000000000000000        0x0 obj_cooja/mtype603.a(uip-udp-packet.)
 .note.GNU-stack
                0x0000000000000000        0x0 obj_cooja/mtype603.a(rpl-nbr-policy.)
 .note.GNU-stack
                0x0000000000000000        0x0 obj_cooja/mtype603.a(rpl-neighbor.o)
 .note.GNU-stack
                0x0000000000000000        0x0 obj_cooja/mtype603.a(rpl-timers.o)
 .note.GNU-stack
                0x0000000000000000        0x0 obj_cooja/mtype603.a(rpl-ext-header.)
 .note.GNU-stack
                0x0000000000000000        0x0 obj_cooja/mtype603.a(rpl-mrhof.o)
 .note.GNU-stack
                0x0000000000000000        0x0 /usr/lib/gcc/i686-linux-gnu/5/crtendS.o
 .note.GNU-stack
                0x0000000000000000        0x0 /usr/lib/gcc/i686-linux-gnu/5/../../../i386-linux-gnu/crtn.o

Memory Configuration

Name             Origin             Length             Attributes
*default*        0x0000000000000000 0xffffffffffffffff

Linker script and memory map

LOAD /usr/lib/gcc/i686-linux-gnu/5/../../../i386-linux-gnu/crti.o
LOAD /usr/lib/gcc/i686-linux-gnu/5/crtbeginS.o
LOAD udp-client.o
LOAD obj_cooja/mtype603.o
LOAD obj_cooja/mtype603.a
LOAD /usr/lib/gcc/i686-linux-gnu/5/libgcc.a
LOAD /usr/lib/gcc/i686-linux-gnu/5/libgcc_s.so
LOAD /usr/lib/gcc/i686-linux-gnu/5/../../../i386-linux-gnu/libc.so
START GROUP
LOAD /lib/i386-linux-gnu/libc.so.6
LOAD /usr/lib/i386-linux-gnu/libc_nonshared.a
LOAD /lib/i386-linux-gnu/ld-linux.so.2
END GROUP
LOAD /usr/lib/gcc/i686-linux-gnu/5/libgcc.a
LOAD /usr/lib/gcc/i686-linux-gnu/5/libgcc_s.so
LOAD /usr/lib/gcc/i686-linux-gnu/5/crtendS.o
LOAD /usr/lib/gcc/i686-linux-gnu/5/../../../i386-linux-gnu/crtn.o
                0x0000000000000114                . = (0x0 + SIZEOF_HEADERS)

.note.gnu.build-id
                0x0000000000000114       0x24
 *(.note.gnu.build-id)
 .note.gnu.build-id
                0x0000000000000114       0x24 /usr/lib/gcc/i686-linux-gnu/5/../../../i386-linux-gnu/crti.o

.hash
 *(.hash)

.gnu.hash       0x0000000000000138     0x13e8
 *(.gnu.hash)
 .gnu.hash      0x0000000000000138     0x13e8 /usr/lib/gcc/i686-linux-gnu/5/../../../i386-linux-gnu/crti.o

.dynsym         0x0000000000001520     0x27f0
 *(.dynsym)
 .dynsym        0x0000000000001520     0x27f0 /usr/lib/gcc/i686-linux-gnu/5/../../../i386-linux-gnu/crti.o

.dynstr         0x0000000000003d10     0x2b7d
 *(.dynstr)
 .dynstr        0x0000000000003d10     0x2b7d /usr/lib/gcc/i686-linux-gnu/5/../../../i386-linux-gnu/crti.o

.gnu.version    0x000000000000688e      0x4fe
 *(.gnu.version)
 .gnu.version   0x000000000000688e      0x4fe /usr/lib/gcc/i686-linux-gnu/5/../../../i386-linux-gnu/crti.o

.gnu.version_d  0x0000000000006d8c        0x0
 *(.gnu.version_d)
 .gnu.version_d
                0x0000000000006d8c        0x0 /usr/lib/gcc/i686-linux-gnu/5/../../../i386-linux-gnu/crti.o

.gnu.version_r  0x0000000000006d8c       0x40
 *(.gnu.version_r)
 .gnu.version_r
                0x0000000000006d8c       0x40 /usr/lib/gcc/i686-linux-gnu/5/../../../i386-linux-gnu/crti.o

.rel.dyn        0x0000000000006dcc     0xa6f8
 *(.rel.init)
 .rel.init      0x0000000000006dcc        0x0 /usr/lib/gcc/i686-linux-gnu/5/../../../i386-linux-gnu/crti.o
 *(.rel.text .rel.text.* .rel.gnu.linkonce.t.*)
 .rel.text      0x0000000000006dcc     0x9dc8 /usr/lib/gcc/i686-linux-gnu/5/../../../i386-linux-gnu/crti.o
 *(.rel.fini)
 .rel.fini      0x0000000000010b94        0x0 /usr/lib/gcc/i686-linux-gnu/5/../../../i386-linux-gnu/crti.o
 *(.rel.rodata .rel.rodata.* .rel.gnu.linkonce.r.*)
 .rel.rodata    0x0000000000010b94      0x580 /usr/lib/gcc/i686-linux-gnu/5/../../../i386-linux-gnu/crti.o
 *(.rel.data.rel.ro .rel.data.rel.ro.* .rel.gnu.linkonce.d.rel.ro.*)
 *(.rel.data .rel.data.* .rel.gnu.linkonce.d.*)
 .rel.data.rel.local
                0x0000000000011114        0x8 /usr/lib/gcc/i686-linux-gnu/5/../../../i386-linux-gnu/crti.o
 .rel.data      0x000000000001111c      0x370 /usr/lib/gcc/i686-linux-gnu/5/../../../i386-linux-gnu/crti.o
 *(.rel.tdata .rel.tdata.* .rel.gnu.linkonce.td.*)
 *(.rel.tbss .rel.tbss.* .rel.gnu.linkonce.tb.*)
 *(.rel.ctors)
 *(.rel.dtors)
 *(.rel.got)
 .rel.got       0x000000000001148c       0x28 /usr/lib/gcc/i686-linux-gnu/5/../../../i386-linux-gnu/crti.o
 *(.rel.bss .rel.bss.* .rel.gnu.linkonce.b.*)
 *(.rel.ifunc)
 .rel.ifunc     0x00000000000114b4        0x0 /usr/lib/gcc/i686-linux-gnu/5/../../../i386-linux-gnu/crti.o
 .rel.fini_array
                0x00000000000114b4        0x8 /usr/lib/gcc/i686-linux-gnu/5/../../../i386-linux-gnu/crti.o
 .rel.init_array
                0x00000000000114bc        0x8 /usr/lib/gcc/i686-linux-gnu/5/../../../i386-linux-gnu/crti.o

.rel.plt        0x00000000000114c4        0x0
 *(.rel.plt)
 .rel.plt       0x00000000000114c4        0x0 /usr/lib/gcc/i686-linux-gnu/5/../../../i386-linux-gnu/crti.o
 *(.rel.iplt)

.init           0x00000000000114c4       0x23
 *(SORT(.init))
 .init          0x00000000000114c4       0x1e /usr/lib/gcc/i686-linux-gnu/5/../../../i386-linux-gnu/crti.o
                0x00000000000114c4                _init
 .init          0x00000000000114e2        0x5 /usr/lib/gcc/i686-linux-gnu/5/../../../i386-linux-gnu/crtn.o

.plt            0x00000000000114f0       0x10
 *(.plt)
 .plt           0x00000000000114f0       0x10 /usr/lib/gcc/i686-linux-gnu/5/../../../i386-linux-gnu/crti.o
 *(.iplt)

.plt.got        0x0000000000011500       0x10
 *(.plt.got)
 .plt.got       0x0000000000011500       0x10 /usr/lib/gcc/i686-linux-gnu/5/../../../i386-linux-gnu/crti.o

.text           0x0000000000011510    0x1a0c6
 *(.text.unlikely .text.*_unlikely .text.unlikely.*)
 .text.unlikely
                0x0000000000011510        0x0 /usr/lib/gcc/i686-linux-gnu/5/crtbeginS.o
 *(.text.exit .text.exit.*)
 *(.text.startup .text.startup.*)
 *(.text.hot .text.hot.*)
 *(.text .stub .text.* .gnu.linkonce.t.*)
 .text          0x0000000000011510        0x0 /usr/lib/gcc/i686-linux-gnu/5/../../../i386-linux-gnu/crti.o
 .gnu.linkonce.t.__x86.get_pc_thunk.bx
                0x0000000000011510        0x4 /usr/lib/gcc/i686-linux-gnu/5/../../../i386-linux-gnu/crti.o
                0x0000000000011510                __x86.get_pc_thunk.bx
 *fill*         0x0000000000011514        0xc 
 .text          0x0000000000011520      0x11c /usr/lib/gcc/i686-linux-gnu/5/crtbeginS.o
 .text.__x86.get_pc_thunk.dx
                0x000000000001163c        0x4 /usr/lib/gcc/i686-linux-gnu/5/crtbeginS.o
                0x000000000001163c                __x86.get_pc_thunk.dx
 .text          0x0000000000011640     0x141d udp-client.o
                0x0000000000011640                ipaddr_sprintf
 .text          0x0000000000012a5d      0x271 obj_cooja/mtype603.o
                0x0000000000012aef                platform_init_stage_one
                0x0000000000012af5                platform_init_stage_two
                0x0000000000012b03                platform_init_stage_three
                0x0000000000012b16                platform_main_loop
                0x0000000000012b89                Java_org_contikios_cooja_corecomm_Lib2_init
                0x0000000000012bc0                Java_org_contikios_cooja_corecomm_Lib2_getMemory
                0x0000000000012bf3                Java_org_contikios_cooja_corecomm_Lib2_setMemory
                0x0000000000012c53                Java_org_contikios_cooja_corecomm_Lib2_tick
                0x0000000000012cbb                Java_org_contikios_cooja_corecomm_Lib2_setReferenceAddress
 .text          0x0000000000012cce       0x65 obj_cooja/mtype603.a(simEnvChange.o)
                0x0000000000012cce                doActionsBeforeTick
                0x0000000000012d00                doActionsAfterTick
 .text          0x0000000000012d33       0x83 obj_cooja/mtype603.a(cooja_mt.o)
                0x0000000000012d33                cooja_mt_start
                0x0000000000012d5d                cooja_mt_exec
                0x0000000000012d93                cooja_mt_yield
 .text          0x0000000000012db6       0xbe obj_cooja/mtype603.a(cooja_mtarch.o)
                0x0000000000012db6                cooja_mtarch_start
                0x0000000000012e29                cooja_sw
                0x0000000000012e4c                cooja_mtarch_exec
                0x0000000000012e69                cooja_mtarch_yield
 .text          0x0000000000012e74       0xc5 obj_cooja/mtype603.a(rtimer-arch.o)
                0x0000000000012e74                rtimer_arch_init
                0x0000000000012e98                rtimer_arch_schedule
                0x0000000000012ec8                rtimer_arch_next
                0x0000000000012ed8                rtimer_arch_pending
                0x0000000000012ee2                rtimer_arch_check
                0x0000000000012f29                rtimer_arch_now
 .text          0x0000000000012f39       0x81 obj_cooja/mtype603.a(beep.o)
                0x0000000000012f39                beep_alarm
                0x0000000000012f46                beep_beep
                0x0000000000012f53                beep
                0x0000000000012f60                beep_down
                0x0000000000012f6d                beep_on
                0x0000000000012f7a                beep_off
                0x0000000000012f87                beep_spinup
                0x0000000000012f94                beep_quick
                0x0000000000012fa1                beep_long
 .text          0x0000000000012fba      0x10d obj_cooja/mtype603.a(button-sensor.o)
 .text          0x00000000000130c7       0x49 obj_cooja/mtype603.a(leds-arch.o)
                0x00000000000130c7                leds_arch_init
                0x00000000000130d4                leds_arch_get
                0x00000000000130e0                leds_arch_set
 .text          0x0000000000013110       0x35 obj_cooja/mtype603.a(moteid.o)
 .text          0x0000000000013145       0xb7 obj_cooja/mtype603.a(pir-sensor.o)
 .text          0x00000000000131fc      0x148 obj_cooja/mtype603.a(rs232.o)
                0x00000000000131fc                rs232_init
                0x0000000000013202                rs232_set_speed
                0x0000000000013211                rs232_set_input
                0x000000000001321f                rs232_send
                0x0000000000013243                rs232_print
                0x000000000001325f                slip_arch_writeb
 .text          0x0000000000013344       0xb7 obj_cooja/mtype603.a(vib-sensor.o)
 .text          0x00000000000133fb       0x38 obj_cooja/mtype603.a(clock.o)
                0x00000000000133fb                clock_init
                0x0000000000013401                clock_time
                0x000000000001340b                clock_seconds
                0x0000000000013421                clock_delay
 .text          0x0000000000013433      0x219 obj_cooja/mtype603.a(cooja-log.o)
                0x0000000000013433                simlog_char
                0x0000000000013476                simlog
                0x00000000000134ec                log_message
                0x000000000001351d                log_set_putchar_with_slip
                0x000000000001352b                log_putchar
                0x00000000000135a6                log_puts
                0x00000000000135ce                log_printf
 .text          0x000000000001364c      0x2b9 obj_cooja/mtype603.a(cfs-cooja.o)
                0x000000000001364c                cfs_open
                0x00000000000136b5                cfs_close
                0x00000000000136c2                cfs_read
                0x0000000000013757                cfs_write
                0x0000000000013833                cfs_seek
                0x00000000000138bb                cfs_remove
                0x00000000000138df                cfs_opendir
                0x00000000000138e9                cfs_readdir
                0x00000000000138f3                cfs_closedir
 .text          0x0000000000013905      0x605 obj_cooja/mtype603.a(cooja-radio.o)
                0x0000000000013947                radio_set_channel
                0x0000000000013955                radio_set_txpower
                0x000000000001396d                radio_signal_strength_last
                0x0000000000013977                radio_signal_strength_current
                0x0000000000013981                radio_LQI
 .text          0x0000000000013f0a       0xee obj_cooja/mtype603.a(eeprom.o)
                0x0000000000013f0a                eeprom_init
                0x0000000000013f10                eeprom_read
                0x0000000000013f7e                eeprom_write
 .text          0x0000000000013ff8       0x2d obj_cooja/mtype603.a(random.o)
                0x0000000000013ff8                random_init
                0x0000000000014018                random_rand
 .text          0x0000000000014025      0x29c obj_cooja/mtype603.a(sensors.o)
                0x0000000000014060                sensors_first
                0x000000000001406a                sensors_next
                0x0000000000014084                sensors_changed
                0x00000000000140b8                sensors_find
 .text          0x00000000000142c1       0xf6 obj_cooja/mtype603.a(leds.o)
                0x00000000000142c1                leds_init
                0x00000000000142cf                leds_blink
                0x0000000000014312                leds_get
                0x000000000001431f                leds_set
                0x000000000001433e                leds_on
                0x0000000000014364                leds_off
                0x0000000000014391                leds_toggle
 .text          0x00000000000143b7     0x3779 obj_cooja/mtype603.a(mqtt.o)
                0x000000000001755a                mqtt_init
                0x0000000000017618                mqtt_register
                0x00000000000176b5                mqtt_connect
                0x00000000000177c7                mqtt_disconnect
                0x0000000000017805                mqtt_subscribe
                0x00000000000178c2                mqtt_unsubscribe
                0x0000000000017970                mqtt_publish
                0x0000000000017a51                mqtt_set_username_password
                0x0000000000017adc                mqtt_set_last_will
 .text          0x0000000000017b30      0x328 obj_cooja/mtype603.a(contiki-main.o)
                0x0000000000017b30                main
 .text          0x0000000000017e58       0x92 obj_cooja/mtype603.a(autostart.o)
                0x0000000000017e58                autostart_start
                0x0000000000017ea2                autostart_exit
 .text          0x0000000000017eea      0x355 obj_cooja/mtype603.a(ctimer.o)
                0x0000000000018012                ctimer_init
                0x0000000000018045                ctimer_set
                0x000000000001806b                ctimer_set_with_process
                0x00000000000180e8                ctimer_reset
                0x000000000001813c                ctimer_restart
                0x0000000000018190                ctimer_stop
                0x00000000000181e0                ctimer_expired
 .text          0x000000000001823f       0x1b obj_cooja/mtype603.a(energest.o)
                0x000000000001823f                energest_init
                0x0000000000018245                energest_flush
                0x000000000001824b                energest_get_total_time
 .text          0x000000000001825a      0x43f obj_cooja/mtype603.a(etimer.o)
                0x000000000001847e                etimer_request_poll
                0x0000000000018507                etimer_set
                0x0000000000018530                etimer_reset_with_new_interval
                0x000000000001855f                etimer_reset
                0x0000000000018585                etimer_restart
                0x00000000000185ab                etimer_adjust
                0x00000000000185c8                etimer_expired
                0x00000000000185db                etimer_expiration_time
                0x00000000000185ed                etimer_start_time
                0x00000000000185f7                etimer_pending
                0x0000000000018609                etimer_next_expiration_time
                0x0000000000018623                etimer_stop
 .text          0x0000000000018699      0x394 obj_cooja/mtype603.a(log.o)
                0x0000000000018699                log_6addr
                0x00000000000186ec                log_6addr_compact_snprint
                0x000000000001878a                log_6addr_compact
                0x00000000000187dd                log_lladdr
                0x000000000001884f                log_lladdr_compact
                0x00000000000188b7                log_set_level
                0x0000000000018972                log_get_level
                0x00000000000189eb                log_level_to_str
 .text          0x0000000000018a2d      0x4fb obj_cooja/mtype603.a(process.o)
                0x0000000000018a2d                process_alloc_event
                0x0000000000018a42                process_start
                0x0000000000018c1c                process_exit
                0x0000000000018c39                process_init
                0x0000000000018dce                process_run
                0x0000000000018e01                process_nevents
                0x0000000000018e1c                process_post
                0x0000000000018eaf                process_post_synch
                0x0000000000018ee4                process_poll
                0x0000000000018f14                process_is_running
 .text          0x0000000000018f28       0xeb obj_cooja/mtype603.a(rtimer.o)
                0x0000000000018f28                rtimer_init
                0x0000000000018f36                rtimer_set
                0x0000000000018fb1                rtimer_run_next
 .text          0x0000000000019013       0x25 obj_cooja/mtype603.a(node-id.o)
                0x0000000000019013                node_id_init
 .text          0x0000000000019038       0x9c obj_cooja/mtype603.a(timer.o)
                0x0000000000019038                timer_set
                0x0000000000019056                timer_reset
                0x000000000001906e                timer_restart
                0x0000000000019083                timer_expired
                0x00000000000190b0                timer_remaining
 .text          0x00000000000190d4      0x1eb obj_cooja/mtype603.a(serial-line.o)
                0x00000000000190d4                serial_line_input_byte
                0x000000000001928a                serial_line_init
 .text          0x00000000000192bf      0x28f obj_cooja/mtype603.a(list.o)
                0x00000000000192bf                list_init
                0x00000000000192ce                list_head
                0x00000000000192d8                list_copy
                0x00000000000192e8                list_tail
                0x000000000001931e                list_add
                0x000000000001936a                list_push
                0x0000000000019396                list_chop
                0x0000000000019400                list_pop
                0x0000000000019428                list_remove
                0x0000000000019490                list_length
                0x00000000000194be                list_insert
                0x0000000000019503                list_item_next
                0x000000000001951a                list_contains
 .text          0x000000000001954e      0x156 obj_cooja/mtype603.a(ringbuf.o)
                0x000000000001954e                ringbuf_init
                0x0000000000019580                ringbuf_put
                0x00000000000195fe                ringbuf_get
                0x000000000001966b                ringbuf_size
                0x000000000001967d                ringbuf_elements
 .text          0x00000000000196a4      0x407 obj_cooja/mtype603.a(packetbuf.o)
                0x00000000000196a4                packetbuf_clear
                0x00000000000196cf                packetbuf_copyfrom
                0x000000000001971e                packetbuf_copyto
                0x00000000000197b1                packetbuf_hdralloc
                0x000000000001982d                packetbuf_hdrreduce
                0x0000000000019873                packetbuf_set_datalen
                0x000000000001988d                packetbuf_dataptr
                0x00000000000198aa                packetbuf_hdrptr
                0x00000000000198b4                packetbuf_datalen
                0x00000000000198c0                packetbuf_hdrlen
                0x00000000000198d7                packetbuf_totlen
                0x00000000000198ed                packetbuf_remaininglen
                0x0000000000019900                packetbuf_attr_clear
                0x000000000001994c                packetbuf_attr_copyto
                0x00000000000199a4                packetbuf_attr_copyfrom
                0x00000000000199fc                packetbuf_set_attr
                0x0000000000019a26                packetbuf_attr
                0x0000000000019a40                packetbuf_set_addr
                0x0000000000019a71                packetbuf_addr
                0x0000000000019a8e                packetbuf_holds_broadcast
 .text          0x0000000000019aab       0xef obj_cooja/mtype603.a(netstack.o)
                0x0000000000019aab                netstack_process_ip_callback
                0x0000000000019b3c                netstack_ip_packet_processor_add
                0x0000000000019b5f                uip_ds6_ip_packet_processor_rm
                0x0000000000019b7c                netstack_init
 .text          0x0000000000019b9a       0x4f obj_cooja/mtype603.a(linkaddr.o)
                0x0000000000019b9a                linkaddr_copy
                0x0000000000019bb0                linkaddr_cmp
                0x0000000000019bd3                linkaddr_set_node_addr
 .text          0x0000000000019be9      0x165 obj_cooja/mtype603.a(csma.o)
 .text          0x0000000000019d4e      0x944 obj_cooja/mtype603.a(csma-output.o)
                0x000000000001a3c7                csma_output_packet
                0x000000000001a654                csma_output_init
 .text          0x000000000001a692      0xb25 obj_cooja/mtype603.a(uip-ds6.o)
                0x000000000001a692                uip_ds6_init
                0x000000000001a83d                uip_ds6_periodic
                0x000000000001a8c4                uip_ds6_list_loop
                0x000000000001a984                uip_ds6_prefix_add
                0x000000000001aa30                uip_ds6_prefix_rm
                0x000000000001aa43                uip_ds6_prefix_lookup
                0x000000000001aa82                uip_ds6_is_addr_onlink
                0x000000000001aaf5                uip_ds6_addr_add
                0x000000000001ac15                uip_ds6_addr_rm
                0x000000000001acbe                uip_ds6_addr_lookup
                0x000000000001acf7                uip_ds6_get_link_local
                0x000000000001ad78                uip_ds6_get_global
                0x000000000001adf9                uip_ds6_maddr_add
                0x000000000001ae59                uip_ds6_maddr_rm
                0x000000000001ae6c                uip_ds6_maddr_lookup
                0x000000000001aea5                uip_ds6_aaddr_add
                0x000000000001af05                uip_ds6_aaddr_rm
                0x000000000001af18                uip_ds6_aaddr_lookup
                0x000000000001af51                uip_ds6_select_src
                0x000000000001b09a                uip_ds6_set_addr_iid
                0x000000000001b0c5                uip_ds6_set_lladdr_from_iid
                0x000000000001b0ee                get_match_length
                0x000000000001b17f                uip_ds6_compute_reachable_time
 .text          0x000000000001b1b7      0x9d5 obj_cooja/mtype603.a(tcp-socket.o)
                0x000000000001b802                tcp_socket_register
                0x000000000001b893                tcp_socket_connect
                0x000000000001b92a                tcp_socket_listen
                0x000000000001b9a1                tcp_socket_unlisten
                0x000000000001ba15                tcp_socket_send
                0x000000000001bab5                tcp_socket_send_str
                0x000000000001badd                tcp_socket_close
                0x000000000001bb06                tcp_socket_unregister
                0x000000000001bb60                tcp_socket_max_sendlen
                0x000000000001bb7d                tcp_socket_queuelen
 .text          0x000000000001bb8c      0xa72 obj_cooja/mtype603.a(tcpip.o)
                0x000000000001bba6                tcpip_output
                0x000000000001bc8a                tcp_connect
                0x000000000001bce2                tcp_unlisten
                0x000000000001bd42                tcp_listen
                0x000000000001bda0                tcp_attach
                0x000000000001bdb8                udp_attach
                0x000000000001bdd0                udp_new
                0x000000000001be1a                udp_broadcast_new
                0x000000000001c09f                tcpip_input
                0x000000000001c23f                tcpip_ipv6_output
                0x000000000001c453                tcpip_poll_udp
                0x000000000001c471                tcpip_poll_tcp
                0x000000000001c48f                tcpip_uipcall
 .text          0x000000000001c5fe      0x35b obj_cooja/mtype603.a(uip-ds6-route.o)
                0x000000000001c64f                uip_ds6_route_init
                0x000000000001c679                uip_ds6_route_nexthop
                0x000000000001c683                uip_ds6_route_head
                0x000000000001c68d                uip_ds6_route_next
                0x000000000001c697                uip_ds6_route_is_nexthop
                0x000000000001c6a1                uip_ds6_route_num_routes
                0x000000000001c6ab                uip_ds6_route_lookup
                0x000000000001c6b5                uip_ds6_route_add
                0x000000000001c6c8                uip_ds6_route_rm
                0x000000000001c6ce                uip_ds6_route_rm_by_nexthop
                0x000000000001c6d4                uip_ds6_defrt_head
                0x000000000001c6ed                uip_ds6_defrt_add
                0x000000000001c79b                uip_ds6_defrt_rm
                0x000000000001c801                uip_ds6_defrt_lookup
                0x000000000001c868                uip_ds6_defrt_choose
                0x000000000001c8de                uip_ds6_defrt_periodic
 .text          0x000000000001c959     0x2802 obj_cooja/mtype603.a(uip6.o)
                0x000000000001c959                uip_add32
                0x000000000001caf3                uip_chksum
                0x000000000001cbd4                uip_icmp6chksum
                0x000000000001cbe9                uip_tcpchksum
                0x000000000001cbfe                uip_udpchksum
                0x000000000001cc13                uip_init
                0x000000000001cc9e                uip_connect
                0x000000000001ce27                remove_ext_hdr
                0x000000000001cf0c                uip_udp_new
                0x000000000001d02e                uip_unlisten
                0x000000000001d070                uip_listen
                0x000000000001d311                uip_process
                0x000000000001f056                uip_htons
                0x000000000001f078                uip_htonl
                0x000000000001f0b6                uip_send
 .text          0x000000000001f15b      0x374 obj_cooja/mtype603.a(uip-ds6-nbr.o)
                0x000000000001f15b                uip_ds6_neighbors_init
                0x000000000001f17f                uip_ds6_nbr_add
                0x000000000001f205                uip_ds6_nbr_rm
                0x000000000001f250                uip_ds6_nbr_update_ll
                0x000000000001f33e                uip_ds6_nbr_get_ipaddr
                0x000000000001f353                uip_ds6_nbr_get_ll
                0x000000000001f36f                uip_ds6_nbr_num
                0x000000000001f3b8                uip_ds6_nbr_head
                0x000000000001f3d1                uip_ds6_nbr_next
                0x000000000001f3ed                uip_ds6_nbr_lookup
                0x000000000001f450                uip_ds6_nbr_ll_lookup
                0x000000000001f46c                uip_ds6_nbr_ipaddr_from_lladdr
                0x000000000001f495                uip_ds6_nbr_lladdr_from_ipaddr
                0x000000000001f4c9                uip_ds6_link_callback
 .text          0x000000000001f4cf      0x6b5 obj_cooja/mtype603.a(uip-nd6.o)
                0x000000000001fb6b                uip_nd6_init
 .text          0x000000000001fb84      0x37a obj_cooja/mtype603.a(simple-udp.o)
                0x000000000001fbb1                simple_udp_send
                0x000000000001fc14                simple_udp_sendto
                0x000000000001fc6f                simple_udp_sendto_port
                0x000000000001fcc8                simple_udp_register
 .text          0x000000000001fefe     0x2a78 obj_cooja/mtype603.a(sicslowpan.o)
                0x00000000000203fc                netstack_sniffer_add
                0x000000000002040a                netstack_sniffer_remove
                0x0000000000022942                sicslowpan_init
                0x000000000002296c                sicslowpan_get_last_rssi
 .text          0x0000000000022976      0x4d1 obj_cooja/mtype603.a(uiplib.o)
                0x0000000000022976                uiplib_ip6addrconv
                0x0000000000022b2e                uiplib_ip4addrconv
                0x0000000000022bf1                uiplib_ipaddr_print
                0x0000000000022c44                uiplib_ipaddr_snprint
 .text          0x0000000000022e47      0x4c9 obj_cooja/mtype603.a(rpl.o)
                0x0000000000022e47                rpl_lollipop_greater_than
                0x0000000000022ea1                rpl_get_global_address
                0x0000000000022f99                rpl_link_callback
                0x0000000000022fdd                rpl_has_joined
                0x0000000000023002                rpl_is_reachable
                0x0000000000023083                rpl_reset_prefix
                0x00000000000230ed                rpl_set_prefix_from_addr
                0x00000000000231d2                rpl_set_prefix
                0x00000000000232ec                rpl_set_leaf_only
                0x0000000000023304                rpl_get_leaf_only
 .text          0x0000000000023310     0x13cb obj_cooja/mtype603.a(rpl-icmp6.o)
                0x0000000000023435                rpl_icmp6_update_nbr_table
                0x00000000000234ce                rpl_icmp6_dis_output
                0x0000000000023b24                rpl_icmp6_dio_output
                0x0000000000024331                rpl_icmp6_dao_output
                0x0000000000024622                rpl_icmp6_dao_ack_output
                0x0000000000024692                rpl_icmp6_init
 .text          0x00000000000246db      0xe51 obj_cooja/mtype603.a(rpl-dag.o)
                0x00000000000246db                rpl_dag_state_to_str
                0x000000000002471a                rpl_dag_get_root_ipaddr
                0x0000000000024762                rpl_dag_leave
                0x00000000000247eb                rpl_dag_poison_and_leave
                0x0000000000024803                rpl_dag_periodic
                0x000000000002488b                rpl_is_addr_in_our_dag
                0x00000000000248cf                rpl_get_default_instance
                0x00000000000248eb                rpl_get_any_dag
                0x0000000000024944                rpl_refresh_routes
                0x0000000000024984                rpl_global_repair
                0x0000000000024a10                rpl_local_repair
                0x0000000000024a5a                rpl_dag_ready_to_advertise
                0x0000000000024a9d                rpl_dag_update_state
                0x00000000000251c1                rpl_process_dio
                0x0000000000025242                rpl_process_dis
                0x0000000000025287                rpl_process_dao
                0x0000000000025316                rpl_process_dao_ack
                0x00000000000253a8                rpl_process_hbh
                0x00000000000253f8                rpl_dag_init_root
                0x000000000002550c                rpl_dag_init
 .text          0x000000000002552c      0x286 obj_cooja/mtype603.a(rpl-dag-root.o)
                0x000000000002552c                rpl_dag_root_print_links
                0x000000000002567a                rpl_dag_root_set_prefix
                0x00000000000256a6                rpl_dag_root_start
                0x0000000000025783                rpl_dag_root_is_root
 .text          0x00000000000257b2       0x1e obj_cooja/mtype603.a(watchdog.o)
                0x00000000000257b2                watchdog_init
                0x00000000000257b8                watchdog_start
                0x00000000000257be                watchdog_periodic
                0x00000000000257c4                watchdog_stop
                0x00000000000257ca                watchdog_reboot
 .text          0x00000000000257d0       0xb2 obj_cooja/mtype603.a(stimer.o)
                0x00000000000257d0                stimer_set
                0x00000000000257ee                stimer_reset
                0x0000000000025806                stimer_restart
                0x000000000002581b                stimer_expired
                0x0000000000025846                stimer_remaining
                0x000000000002586a                stimer_elapsed
 .text          0x0000000000025882      0x1b8 obj_cooja/mtype603.a(memb.o)
                0x0000000000025882                memb_init
                0x00000000000258d7                memb_alloc
                0x000000000002593c                memb_free
                0x00000000000259b7                memb_inmemb
                0x00000000000259f6                memb_numfree
 .text          0x0000000000025a3a      0x2e7 obj_cooja/mtype603.a(queuebuf.o)
                0x0000000000025a44                queuebuf_init
                0x0000000000025a6d                queuebuf_numfree
                0x0000000000025a85                queuebuf_new_from_packetbuf
                0x0000000000025b24                queuebuf_update_attr_from_packetbuf
                0x0000000000025b59                queuebuf_update_from_packetbuf
                0x0000000000025ba9                queuebuf_free
                0x0000000000025bf2                queuebuf_to_packetbuf
                0x0000000000025c5e                queuebuf_dataptr
                0x0000000000025c98                queuebuf_datalen
                0x0000000000025cbb                queuebuf_addr
                0x0000000000025cf0                queuebuf_attr
                0x0000000000025d1b                queuebuf_debug_print
 .text          0x0000000000025d21      0x78b obj_cooja/mtype603.a(nbr-table.o)
                0x000000000002619a                nbr_table_register
                0x0000000000026207                nbr_table_is_registered
                0x0000000000026242                nbr_table_head
                0x000000000002629d                nbr_table_next
                0x00000000000262fe                nbr_table_add_lladdr
                0x00000000000263c8                nbr_table_get_from_lladdr
                0x0000000000026414                nbr_table_remove
                0x000000000002644c                nbr_table_lock
                0x0000000000026466                nbr_table_unlock
                0x0000000000026480                nbr_table_get_lladdr
 .text          0x00000000000264ac      0x37c obj_cooja/mtype603.a(link-stats.o)
                0x00000000000264ac                link_stats_from_lladdr
                0x00000000000264c8                link_stats_is_fresh
                0x0000000000026504                guess_etx_from_rssi
                0x0000000000026580                link_stats_packet_sent
                0x0000000000026693                link_stats_input_callback
                0x00000000000267a3                link_stats_reset
                0x00000000000267f3                link_stats_init
 .text          0x0000000000026828      0x187 obj_cooja/mtype603.a(mac-sequence.o)
                0x0000000000026828                mac_sequence_is_duplicate
                0x00000000000268c8                mac_sequence_register_seqno
 .text          0x00000000000269af       0x23 obj_cooja/mtype603.a(mac.o)
                0x00000000000269af                mac_call_sent_callback
 .text          0x00000000000269d2      0x41d obj_cooja/mtype603.a(framer-802154.o)
                0x0000000000026b61                framer_802154_setup_params
 .text          0x0000000000026def      0xb6f obj_cooja/mtype603.a(frame802154.o)
                0x0000000000026e20                frame802154_get_pan_id
                0x0000000000026e2c                frame802154_set_pan_id
                0x0000000000026e46                frame802154_has_panid
                0x0000000000026ff5                frame802154_check_dest_panid
                0x000000000002707d                frame802154_is_broadcast_addr
                0x00000000000270ca                frame802154_extract_linkaddr
                0x000000000002732f                frame802154_hdrlen
                0x00000000000273a2                frame802154_create_fcf
                0x000000000002745a                frame802154_create
                0x00000000000275cf                frame802154_parse_fcf
                0x00000000000276b1                frame802154_parse
 .text          0x000000000002795e      0x1ec obj_cooja/mtype603.a(uipbuf.o)
                0x000000000002795e                uipbuf_get_next_header
                0x00000000000279cd                uipbuf_get_last_header
                0x0000000000027a54                uipbuf_get_attr
                0x0000000000027a7b                uipbuf_set_attr
                0x0000000000027ab2                uipbuf_clear_attr
                0x0000000000027ade                uipbuf_set_attr_flag
                0x0000000000027aff                uipbuf_clr_attr_flag
                0x0000000000027b26                uipbuf_is_attr_flag
 .text          0x0000000000027b4a      0x96e obj_cooja/mtype603.a(uip-icmp6.o)
                0x0000000000027bbf                uip_icmp6_input
                0x0000000000027c16                uip_icmp6_register_input_handler
                0x0000000000027e22                uip_icmp6_error_output
                0x0000000000028181                uip_icmp6_send
                0x0000000000028440                uip_icmp6_echo_reply_callback_add
                0x0000000000028472                uip_icmp6_echo_reply_callback_rm
                0x000000000002848f                uip_icmp6_init
 .text          0x00000000000284b8      0x69b obj_cooja/mtype603.a(uip-sr.o)
                0x00000000000284b8                uip_sr_num_nodes
                0x0000000000028546                uip_sr_get_node
                0x000000000002859d                uip_sr_is_addr_reachable
                0x000000000002864b                uip_sr_expire_parent
                0x0000000000028694                uip_sr_update_node
                0x00000000000287c4                uip_sr_init
                0x00000000000287f8                uip_sr_node_head
                0x0000000000028811                uip_sr_node_next
                0x0000000000028827                uip_sr_periodic
                0x000000000002892d                uip_sr_free_all
                0x000000000002899d                uip_sr_link_snprint
 .text          0x0000000000028b53      0x146 obj_cooja/mtype603.a(uip-packetqueue)
                0x0000000000028b81                uip_packetqueue_new
                0x0000000000028b90                uip_packetqueue_alloc
                0x0000000000028beb                uip_packetqueue_free
                0x0000000000028c32                uip_packetqueue_buf
                0x0000000000028c4f                uip_packetqueue_buflen
                0x0000000000028c70                uip_packetqueue_set_buflen
 .text          0x0000000000028c99      0x128 obj_cooja/mtype603.a(uip-udp-packet.)
                0x0000000000028c99                uip_udp_packet_send
                0x0000000000028cf4                uip_udp_packet_sendto
 .text          0x0000000000028dc1      0x1c8 obj_cooja/mtype603.a(rpl-nbr-policy.)
                0x0000000000028f46                rpl_nbr_policy_find_removable
 .text          0x0000000000028f89      0x8ed obj_cooja/mtype603.a(rpl-neighbor.o)
                0x0000000000029005                rpl_neighbor_snprint
                0x00000000000292b2                rpl_neighbor_print_list
                0x0000000000029367                rpl_neighbor_count
                0x000000000002940e                rpl_neighbor_get_from_lladdr
                0x000000000002942a                rpl_neighbor_is_acceptable_parent
                0x000000000002945e                rpl_neighbor_get_link_metric
                0x0000000000029492                rpl_neighbor_rank_via_nbr
                0x00000000000294c6                rpl_neighbor_get_lladdr
                0x00000000000294e2                rpl_neighbor_get_ipaddr
                0x0000000000029509                rpl_neighbor_get_link_stats
                0x0000000000029530                rpl_neighbor_is_fresh
                0x0000000000029557                rpl_neighbor_is_reachable
                0x00000000000295a2                rpl_neighbor_is_parent
                0x00000000000295cc                rpl_neighbor_set_preferred_parent
                0x0000000000029658                rpl_neighbor_remove_all
                0x00000000000296a7                rpl_neighbor_get_from_ipaddr
                0x00000000000297ab                rpl_neighbor_select_best
                0x0000000000029857                rpl_neighbor_init
 .text          0x0000000000029876      0xa19 obj_cooja/mtype603.a(rpl-timers.o)
                0x0000000000029876                rpl_timers_schedule_periodic_dis
                0x00000000000299c4                rpl_timers_dio_reset
                0x0000000000029ab5                rpl_timers_schedule_unicast_dio
                0x0000000000029c3b                rpl_timers_schedule_dao
                0x0000000000029d75                rpl_timers_schedule_dao_ack
                0x0000000000029dfb                get_probing_delay
                0x0000000000029e2f                get_probing_target
                0x000000000002a019                rpl_schedule_probing
                0x000000000002a047                rpl_schedule_probing_now
                0x000000000002a0b1                rpl_timers_unschedule_leaving
                0x000000000002a0e9                rpl_timers_schedule_leaving
                0x000000000002a12a                rpl_timers_init
                0x000000000002a1ba                rpl_timers_stop_dag_timers
                0x000000000002a233                rpl_timers_unschedule_state_update
                0x000000000002a257                rpl_timers_schedule_state_update
 .text          0x000000000002a28f     0x102c obj_cooja/mtype603.a(rpl-ext-header.)
                0x000000000002a28f                rpl_ext_header_srh_get_next_hop
                0x000000000002a40b                rpl_ext_header_srh_update
                0x000000000002ab04                rpl_ext_header_hbh_update
                0x000000000002b059                rpl_ext_header_update
                0x000000000002b0e2                rpl_ext_header_remove
 .text          0x000000000002b2bb      0x31b obj_cooja/mtype603.a(rpl-mrhof.o)
 .text          0x000000000002b5d6        0x0 /usr/lib/gcc/i686-linux-gnu/5/crtendS.o
 .text          0x000000000002b5d6        0x0 /usr/lib/gcc/i686-linux-gnu/5/../../../i386-linux-gnu/crtn.o
 *(.gnu.warning)

.fini           0x000000000002b5d8       0x14
 *(SORT(.fini))
 .fini          0x000000000002b5d8        0xf /usr/lib/gcc/i686-linux-gnu/5/../../../i386-linux-gnu/crti.o
                0x000000000002b5d8                _fini
 .fini          0x000000000002b5e7        0x5 /usr/lib/gcc/i686-linux-gnu/5/../../../i386-linux-gnu/crtn.o
                [!provide]                        PROVIDE (__etext, .)
                [!provide]                        PROVIDE (_etext, .)
                [!provide]                        PROVIDE (etext, .)

.rodata         0x000000000002b600      0xc40
 *(.rodata .rodata.* .gnu.linkonce.r.*)
 .rodata        0x000000000002b600      0x49c udp-client.o
                0x000000000002b620                autostart_processes
 .rodata        0x000000000002ba9c        0x8 obj_cooja/mtype603.a(beep.o)
                0x000000000002ba9c                beep_interface
 .rodata        0x000000000002baa4       0x20 obj_cooja/mtype603.a(button-sensor.o)
                0x000000000002baa4                button_interface
                0x000000000002bab4                button_sensor
 .rodata        0x000000000002bac4        0x8 obj_cooja/mtype603.a(leds-arch.o)
                0x000000000002bac4                leds_interface
 .rodata        0x000000000002bacc        0x8 obj_cooja/mtype603.a(moteid.o)
                0x000000000002bacc                moteid_interface
 .rodata        0x000000000002bad4       0x1c obj_cooja/mtype603.a(pir-sensor.o)
                0x000000000002bad4                pir_interface
                0x000000000002bae0                pir_sensor
 .rodata        0x000000000002baf0        0xe obj_cooja/mtype603.a(rs232.o)
                0x000000000002baf0                rs232_interface
 *fill*         0x000000000002bafe        0x2 
 .rodata        0x000000000002bb00       0x24 obj_cooja/mtype603.a(vib-sensor.o)
                0x000000000002bb00                vib_interface
                0x000000000002bb14                vib_sensor
 .rodata        0x000000000002bb24        0x8 obj_cooja/mtype603.a(clock.o)
                0x000000000002bb24                clock_interface
 .rodata        0x000000000002bb2c        0x8 obj_cooja/mtype603.a(cooja-log.o)
                0x000000000002bb2c                simlog_interface
 .rodata        0x000000000002bb34       0x2f obj_cooja/mtype603.a(cfs-cooja.o)
                0x000000000002bb34                cfs_interface
 *fill*         0x000000000002bb63       0x1d 
 .rodata        0x000000000002bb80       0x58 obj_cooja/mtype603.a(cooja-radio.o)
                0x000000000002bb80                radio_interface
                0x000000000002bba0                cooja_radio_driver
 .rodata        0x000000000002bbd8        0x8 obj_cooja/mtype603.a(eeprom.o)
                0x000000000002bbd8                eeprom_interface
 .rodata        0x000000000002bbe0        0x8 obj_cooja/mtype603.a(sensors.o)
 .rodata        0x000000000002bbe8       0x14 obj_cooja/mtype603.a(mqtt.o)
 .rodata        0x000000000002bbfc       0xf8 obj_cooja/mtype603.a(contiki-main.o)
 .rodata        0x000000000002bcf4        0xf obj_cooja/mtype603.a(ctimer.o)
 .rodata        0x000000000002bd03        0xc obj_cooja/mtype603.a(etimer.o)
 *fill*         0x000000000002bd0f        0x1 
 .rodata        0x000000000002bd10       0xc0 obj_cooja/mtype603.a(log.o)
 .rodata        0x000000000002bdd0        0xe obj_cooja/mtype603.a(serial-line.o)
 *fill*         0x000000000002bdde        0x2 
 .rodata        0x000000000002bde0        0x8 obj_cooja/mtype603.a(linkaddr.o)
                0x000000000002bde0                linkaddr_null
 .rodata        0x000000000002bde8       0x20 obj_cooja/mtype603.a(csma.o)
                0x000000000002bdf0                csma_driver
 .rodata        0x000000000002be08       0x13 obj_cooja/mtype603.a(tcp-socket.o)
 .rodata        0x000000000002be1b        0xd obj_cooja/mtype603.a(tcpip.o)
 .rodata        0x000000000002be28       0x4d obj_cooja/mtype603.a(uip-ds6-route.o)
 *fill*         0x000000000002be75        0x3 
 .rodata        0x000000000002be78      0x13c obj_cooja/mtype603.a(uip6.o)
 .rodata        0x000000000002bfb4       0x13 obj_cooja/mtype603.a(simple-udp.o)
 *fill*         0x000000000002bfc7        0x1 
 .rodata        0x000000000002bfc8       0x30 obj_cooja/mtype603.a(sicslowpan.o)
                0x000000000002bfc8                unc_llconf
                0x000000000002bfcc                unc_ctxconf
                0x000000000002bfd0                unc_mxconf
                0x000000000002bfd4                llprefix
                0x000000000002bfe8                sicslowpan_driver
 .rodata        0x000000000002bff8       0x2d obj_cooja/mtype603.a(uiplib.o)
 *fill*         0x000000000002c025       0x1b 
 .rodata        0x000000000002c040       0x70 obj_cooja/mtype603.a(rpl.o)
                0x000000000002c060                rpl_lite_driver
 .rodata        0x000000000002c0b0       0xdb obj_cooja/mtype603.a(rpl-dag.o)
 *fill*         0x000000000002c18b        0x1 
 .rodata        0x000000000002c18c        0xc obj_cooja/mtype603.a(framer-802154.o)
                0x000000000002c18c                framer_802154
 .rodata        0x000000000002c198       0x44 obj_cooja/mtype603.a(uip-sr.o)
 .rodata        0x000000000002c1dc       0x58 obj_cooja/mtype603.a(rpl-neighbor.o)
 .rodata        0x000000000002c234        0xc obj_cooja/mtype603.a(rpl-timers.o)

.rodata1
 *(.rodata1)

.eh_frame_hdr   0x000000000002c240     0x16a4
 *(.eh_frame_hdr)
 .eh_frame_hdr  0x000000000002c240     0x16a4 udp-client.o
                0x000000000002c240                __GNU_EH_FRAME_HDR
 *(.eh_frame_entry .eh_frame_entry.*)

.eh_frame       0x000000000002d8e4     0x5bc4
 *(.eh_frame)
 .eh_frame      0x000000000002d8e4       0x3c /usr/lib/gcc/i686-linux-gnu/5/../../../i386-linux-gnu/crti.o
                                         0x40 (size before relaxing)
 .eh_frame      0x000000000002d920      0x200 udp-client.o
                                        0x218 (size before relaxing)
 .eh_frame      0x000000000002db20      0x178 obj_cooja/mtype603.o
                                        0x190 (size before relaxing)
 .eh_frame      0x000000000002dc98       0x40 obj_cooja/mtype603.a(simEnvChange.o)
                                         0x58 (size before relaxing)
 .eh_frame      0x000000000002dcd8       0x60 obj_cooja/mtype603.a(cooja_mt.o)
                                         0x78 (size before relaxing)
 .eh_frame      0x000000000002dd38       0x80 obj_cooja/mtype603.a(cooja_mtarch.o)
                                         0x98 (size before relaxing)
 .eh_frame      0x000000000002ddb8       0xc8 obj_cooja/mtype603.a(rtimer-arch.o)
                                         0xe0 (size before relaxing)
 .eh_frame      0x000000000002de80      0x160 obj_cooja/mtype603.a(beep.o)
                                        0x178 (size before relaxing)
 .eh_frame      0x000000000002dfe0       0xa0 obj_cooja/mtype603.a(button-sensor.o)
                                         0xb8 (size before relaxing)
 .eh_frame      0x000000000002e080       0xa0 obj_cooja/mtype603.a(leds-arch.o)
                                         0xb8 (size before relaxing)
 .eh_frame      0x000000000002e120       0x40 obj_cooja/mtype603.a(moteid.o)
                                         0x58 (size before relaxing)
 .eh_frame      0x000000000002e160       0xa0 obj_cooja/mtype603.a(pir-sensor.o)
                                         0xb8 (size before relaxing)
 .eh_frame      0x000000000002e200      0x100 obj_cooja/mtype603.a(rs232.o)
                                        0x118 (size before relaxing)
 .eh_frame      0x000000000002e300       0xa0 obj_cooja/mtype603.a(vib-sensor.o)
                                         0xb8 (size before relaxing)
 .eh_frame      0x000000000002e3a0       0xc0 obj_cooja/mtype603.a(clock.o)
                                         0xd8 (size before relaxing)
 .eh_frame      0x000000000002e460      0x120 obj_cooja/mtype603.a(cooja-log.o)
                                        0x138 (size before relaxing)
 .eh_frame      0x000000000002e580      0x160 obj_cooja/mtype603.a(cfs-cooja.o)
                                        0x178 (size before relaxing)
 .eh_frame      0x000000000002e6e0      0x340 obj_cooja/mtype603.a(cooja-radio.o)
                                        0x358 (size before relaxing)
 .eh_frame      0x000000000002ea20       0xa0 obj_cooja/mtype603.a(eeprom.o)
                                         0xb8 (size before relaxing)
 .eh_frame      0x000000000002eac0       0x40 obj_cooja/mtype603.a(random.o)
                                         0x58 (size before relaxing)
 .eh_frame      0x000000000002eb00       0xc0 obj_cooja/mtype603.a(sensors.o)
                                         0xd8 (size before relaxing)
 .eh_frame      0x000000000002ebc0       0xe0 obj_cooja/mtype603.a(leds.o)
                                         0xf8 (size before relaxing)
 .eh_frame      0x000000000002eca0      0x4a4 obj_cooja/mtype603.a(mqtt.o)
                                        0x4bc (size before relaxing)
 .eh_frame      0x000000000002f144       0x30 obj_cooja/mtype603.a(contiki-main.o)
                                         0x48 (size before relaxing)
 .eh_frame      0x000000000002f174       0x40 obj_cooja/mtype603.a(autostart.o)
                                         0x58 (size before relaxing)
 .eh_frame      0x000000000002f1b4      0x100 obj_cooja/mtype603.a(ctimer.o)
                                        0x118 (size before relaxing)
 .eh_frame      0x000000000002f2b4       0x60 obj_cooja/mtype603.a(energest.o)
                                         0x78 (size before relaxing)
 .eh_frame      0x000000000002f314      0x1e0 obj_cooja/mtype603.a(etimer.o)
                                        0x1f8 (size before relaxing)
 .eh_frame      0x000000000002f4f4      0x100 obj_cooja/mtype603.a(log.o)
                                        0x118 (size before relaxing)
 .eh_frame      0x000000000002f5f4      0x1c4 obj_cooja/mtype603.a(process.o)
                                        0x1dc (size before relaxing)
 .eh_frame      0x000000000002f7b8       0x60 obj_cooja/mtype603.a(rtimer.o)
                                         0x78 (size before relaxing)
 .eh_frame      0x000000000002f818       0x20 obj_cooja/mtype603.a(node-id.o)
                                         0x38 (size before relaxing)
 .eh_frame      0x000000000002f838       0xa4 obj_cooja/mtype603.a(timer.o)
                                         0xbc (size before relaxing)
 .eh_frame      0x000000000002f8dc       0x60 obj_cooja/mtype603.a(serial-line.o)
                                         0x78 (size before relaxing)
 .eh_frame      0x000000000002f93c      0x1a0 obj_cooja/mtype603.a(list.o)
                                        0x1b8 (size before relaxing)
 .eh_frame      0x000000000002fadc       0xa0 obj_cooja/mtype603.a(ringbuf.o)
                                         0xb8 (size before relaxing)
 .eh_frame      0x000000000002fb7c      0x28c obj_cooja/mtype603.a(packetbuf.o)
                                        0x2a4 (size before relaxing)
 .eh_frame      0x000000000002fe08       0x80 obj_cooja/mtype603.a(netstack.o)
                                         0x98 (size before relaxing)
 .eh_frame      0x000000000002fe88       0x60 obj_cooja/mtype603.a(linkaddr.o)
                                         0x78 (size before relaxing)
 .eh_frame      0x000000000002fee8       0xa0 obj_cooja/mtype603.a(csma.o)
                                         0xb8 (size before relaxing)
 .eh_frame      0x000000000002ff88      0x1d4 obj_cooja/mtype603.a(csma-output.o)
                                        0x1ec (size before relaxing)
 .eh_frame      0x000000000003015c      0x2e8 obj_cooja/mtype603.a(uip-ds6.o)
                                        0x300 (size before relaxing)
 .eh_frame      0x0000000000030444      0x248 obj_cooja/mtype603.a(tcp-socket.o)
                                        0x260 (size before relaxing)
 .eh_frame      0x000000000003068c      0x308 obj_cooja/mtype603.a(tcpip.o)
                                        0x320 (size before relaxing)
 .eh_frame      0x0000000000030994      0x220 obj_cooja/mtype603.a(uip-ds6-route.o)
                                        0x238 (size before relaxing)
 .eh_frame      0x0000000000030bb4      0x274 obj_cooja/mtype603.a(uip6.o)
                                        0x28c (size before relaxing)
 .eh_frame      0x0000000000030e28      0x1c0 obj_cooja/mtype603.a(uip-ds6-nbr.o)
                                        0x1d8 (size before relaxing)
 .eh_frame      0x0000000000030fe8       0x84 obj_cooja/mtype603.a(uip-nd6.o)
                                         0x9c (size before relaxing)
 .eh_frame      0x000000000003106c       0xd4 obj_cooja/mtype603.a(simple-udp.o)
                                         0xec (size before relaxing)
 .eh_frame      0x0000000000031140      0x2f8 obj_cooja/mtype603.a(sicslowpan.o)
                                        0x310 (size before relaxing)
 .eh_frame      0x0000000000031438       0x88 obj_cooja/mtype603.a(uiplib.o)
                                         0xa0 (size before relaxing)
 .eh_frame      0x00000000000314c0      0x1e0 obj_cooja/mtype603.a(rpl.o)
                                        0x1f8 (size before relaxing)
 .eh_frame      0x00000000000316a0      0x1c4 obj_cooja/mtype603.a(rpl-icmp6.o)
                                        0x1dc (size before relaxing)
 .eh_frame      0x0000000000031864      0x370 obj_cooja/mtype603.a(rpl-dag.o)
                                        0x388 (size before relaxing)
 .eh_frame      0x0000000000031bd4       0xa0 obj_cooja/mtype603.a(rpl-dag-root.o)
                                         0xb8 (size before relaxing)
 .eh_frame      0x0000000000031c74       0xa0 obj_cooja/mtype603.a(watchdog.o)
                                         0xb8 (size before relaxing)
 .eh_frame      0x0000000000031d14       0xc4 obj_cooja/mtype603.a(stimer.o)
                                         0xdc (size before relaxing)
 .eh_frame      0x0000000000031dd8       0xa0 obj_cooja/mtype603.a(memb.o)
                                         0xb8 (size before relaxing)
 .eh_frame      0x0000000000031e78      0x1a0 obj_cooja/mtype603.a(queuebuf.o)
                                        0x1b8 (size before relaxing)
 .eh_frame      0x0000000000032018      0x2ac obj_cooja/mtype603.a(nbr-table.o)
                                        0x2c4 (size before relaxing)
 .eh_frame      0x00000000000322c4      0x100 obj_cooja/mtype603.a(link-stats.o)
                                        0x118 (size before relaxing)
 .eh_frame      0x00000000000323c4       0x48 obj_cooja/mtype603.a(mac-sequence.o)
                                         0x60 (size before relaxing)
 .eh_frame      0x000000000003240c       0x20 obj_cooja/mtype603.a(mac.o)
                                         0x38 (size before relaxing)
 .eh_frame      0x000000000003242c       0xa4 obj_cooja/mtype603.a(framer-802154.o)
                                         0xbc (size before relaxing)
 .eh_frame      0x00000000000324d0      0x1a4 obj_cooja/mtype603.a(frame802154.o)
                                        0x1bc (size before relaxing)
 .eh_frame      0x0000000000032674      0x100 obj_cooja/mtype603.a(uipbuf.o)
                                        0x118 (size before relaxing)
 .eh_frame      0x0000000000032774      0x160 obj_cooja/mtype603.a(uip-icmp6.o)
                                        0x178 (size before relaxing)
 .eh_frame      0x00000000000328d4      0x184 obj_cooja/mtype603.a(uip-sr.o)
                                        0x19c (size before relaxing)
 .eh_frame      0x0000000000032a58       0xe0 obj_cooja/mtype603.a(uip-packetqueue)
                                         0xf8 (size before relaxing)
 .eh_frame      0x0000000000032b38       0x40 obj_cooja/mtype603.a(uip-udp-packet.)
                                         0x58 (size before relaxing)
 .eh_frame      0x0000000000032b78       0x80 obj_cooja/mtype603.a(rpl-nbr-policy.)
                                         0x98 (size before relaxing)
 .eh_frame      0x0000000000032bf8      0x2d4 obj_cooja/mtype603.a(rpl-neighbor.o)
                                        0x2ec (size before relaxing)
 .eh_frame      0x0000000000032ecc      0x368 obj_cooja/mtype603.a(rpl-timers.o)
                                        0x380 (size before relaxing)
 .eh_frame      0x0000000000033234      0x128 obj_cooja/mtype603.a(rpl-ext-header.)
                                        0x140 (size before relaxing)
 .eh_frame      0x000000000003335c      0x148 obj_cooja/mtype603.a(rpl-mrhof.o)
                                        0x160 (size before relaxing)
 .eh_frame      0x00000000000334a4        0x4 /usr/lib/gcc/i686-linux-gnu/5/crtendS.o
 *(.eh_frame.*)

.gcc_except_table
 *(.gcc_except_table .gcc_except_table.*)

.gnu_extab
 *(.gnu_extab*)

.exception_ranges
 *(.exception_ranges .exception_ranges*)
                0x0000000000034f10                . = DATA_SEGMENT_ALIGN (0x1000, 0x1000)

.eh_frame
 *(.eh_frame)
 *(.eh_frame.*)

.gnu_extab
 *(.gnu_extab)

.gcc_except_table
 *(.gcc_except_table .gcc_except_table.*)

.exception_ranges
 *(.exception_ranges .exception_ranges*)

.tdata
 *(.tdata .tdata.* .gnu.linkonce.td.*)

.tbss
 *(.tbss .tbss.* .gnu.linkonce.tb.*)
 *(.tcommon)

.preinit_array
 *(.preinit_array)

.init_array     0x0000000000034f10        0x4
 *(SORT(.init_array.*) SORT(.ctors.*))
 *(.init_array EXCLUDE_FILE(*crtend?.o *crtend.o *crtbegin?.o *crtbegin.o) .ctors)
 .init_array    0x0000000000034f10        0x4 /usr/lib/gcc/i686-linux-gnu/5/crtbeginS.o

.fini_array     0x0000000000034f14        0x4
 *(SORT(.fini_array.*) SORT(.dtors.*))
 *(.fini_array EXCLUDE_FILE(*crtend?.o *crtend.o *crtbegin?.o *crtbegin.o) .dtors)
 .fini_array    0x0000000000034f14        0x4 /usr/lib/gcc/i686-linux-gnu/5/crtbeginS.o

.ctors
 *crtbegin.o(.ctors)
 *crtbegin?.o(.ctors)
 *(EXCLUDE_FILE(*crtend?.o *crtend.o) .ctors)
 *(SORT(.ctors.*))
 *(.ctors)

.dtors
 *crtbegin.o(.dtors)
 *crtbegin?.o(.dtors)
 *(EXCLUDE_FILE(*crtend?.o *crtend.o) .dtors)
 *(SORT(.dtors.*))
 *(.dtors)

.jcr            0x0000000000034f18        0x4
 *(.jcr)
 .jcr           0x0000000000034f18        0x0 /usr/lib/gcc/i686-linux-gnu/5/crtbeginS.o
 .jcr           0x0000000000034f18        0x4 /usr/lib/gcc/i686-linux-gnu/5/crtendS.o

.data.rel.ro
 *(.data.rel.ro.local* .gnu.linkonce.d.rel.ro.local.*)
 *(.data.rel.ro .data.rel.ro.* .gnu.linkonce.d.rel.ro.*)

.dynamic        0x0000000000034f1c       0xd0
 *(.dynamic)
 .dynamic       0x0000000000034f1c       0xd0 /usr/lib/gcc/i686-linux-gnu/5/../../../i386-linux-gnu/crti.o
                0x0000000000034f1c                _DYNAMIC

.got            0x0000000000034fec       0x14
 *(.got)
 .got           0x0000000000034fec       0x14 /usr/lib/gcc/i686-linux-gnu/5/../../../i386-linux-gnu/crti.o
 *(.igot)
                0x0000000000035ff4                . = DATA_SEGMENT_RELRO_END (., (SIZEOF (.got.plt) >= 0xc)?0xc:0x0)

.got.plt        0x0000000000035000        0xc
 *(.got.plt)
 .got.plt       0x0000000000035000        0xc /usr/lib/gcc/i686-linux-gnu/5/../../../i386-linux-gnu/crti.o
                0x0000000000035000                _GLOBAL_OFFSET_TABLE_
 *(.igot.plt)

.data           0x0000000000035020      0x344
 *(.data .data.* .gnu.linkonce.d.*)
 .data          0x0000000000035020        0x0 /usr/lib/gcc/i686-linux-gnu/5/../../../i386-linux-gnu/crti.o
 .data          0x0000000000035020        0x0 /usr/lib/gcc/i686-linux-gnu/5/crtbeginS.o
 .data.rel.local
                0x0000000000035020        0x4 /usr/lib/gcc/i686-linux-gnu/5/crtbeginS.o
                0x0000000000035020                __dso_handle
 .data          0x0000000000035024       0x24 udp-client.o
                0x0000000000035028                udp_client_process
                0x0000000000035038                mqtt_client_process
 *fill*         0x0000000000035048       0x18 
 .data          0x0000000000035060       0x44 obj_cooja/mtype603.o
                0x0000000000035060                simInterfaces
                0x0000000000035094                sensors
 .data          0x00000000000350a4        0x0 obj_cooja/mtype603.a(simEnvChange.o)
 .data          0x00000000000350a4        0x0 obj_cooja/mtype603.a(cooja_mt.o)
 .data          0x00000000000350a4        0x0 obj_cooja/mtype603.a(cooja_mtarch.o)
 .data          0x00000000000350a4        0x0 obj_cooja/mtype603.a(rtimer-arch.o)
 .data          0x00000000000350a4        0x0 obj_cooja/mtype603.a(beep.o)
 .data          0x00000000000350a4        0x0 obj_cooja/mtype603.a(button-sensor.o)
 .data          0x00000000000350a4        0x0 obj_cooja/mtype603.a(leds-arch.o)
 .data          0x00000000000350a4        0x0 obj_cooja/mtype603.a(moteid.o)
 .data          0x00000000000350a4        0x0 obj_cooja/mtype603.a(pir-sensor.o)
 .data          0x00000000000350a4        0x0 obj_cooja/mtype603.a(rs232.o)
 .data          0x00000000000350a4        0x0 obj_cooja/mtype603.a(vib-sensor.o)
 .data          0x00000000000350a4        0x0 obj_cooja/mtype603.a(clock.o)
 .data          0x00000000000350a4        0x0 obj_cooja/mtype603.a(cooja-log.o)
 .data          0x00000000000350a4        0x0 obj_cooja/mtype603.a(cfs-cooja.o)
 .data          0x00000000000350a4       0x2c obj_cooja/mtype603.a(cooja-radio.o)
                0x00000000000350a4                simRadioHWOn
                0x00000000000350a8                simSignalStrength
                0x00000000000350ac                simLastSignalStrength
                0x00000000000350b0                simPower
                0x00000000000350b4                simRadioChannel
                0x00000000000350b8                simLQI
                0x00000000000350c0                cooja_radio_process
 .data          0x00000000000350d0        0x0 obj_cooja/mtype603.a(eeprom.o)
 .data          0x00000000000350d0        0x0 obj_cooja/mtype603.a(random.o)
 .data          0x00000000000350d0       0x10 obj_cooja/mtype603.a(sensors.o)
                0x00000000000350d0                sensors_process
 .data          0x00000000000350e0        0x0 obj_cooja/mtype603.a(leds.o)
 .data          0x00000000000350e0       0x14 obj_cooja/mtype603.a(mqtt.o)
                0x00000000000350e4                mqtt_process
 .data          0x00000000000350f4        0x0 obj_cooja/mtype603.a(contiki-main.o)
 .data          0x00000000000350f4        0x0 obj_cooja/mtype603.a(autostart.o)
 .data          0x00000000000350f4       0x14 obj_cooja/mtype603.a(ctimer.o)
                0x00000000000350f8                ctimer_process
 .data          0x0000000000035108        0x0 obj_cooja/mtype603.a(energest.o)
 .data          0x0000000000035108       0x10 obj_cooja/mtype603.a(etimer.o)
                0x0000000000035108                etimer_process
 *fill*         0x0000000000035118        0x8 
 .data          0x0000000000035120       0xb0 obj_cooja/mtype603.a(log.o)
                0x0000000000035120                curr_log_level_main
                0x0000000000035140                all_modules
 .data          0x00000000000351d0        0x0 obj_cooja/mtype603.a(process.o)
 .data          0x00000000000351d0        0x0 obj_cooja/mtype603.a(rtimer.o)
 .data          0x00000000000351d0        0x0 obj_cooja/mtype603.a(node-id.o)
 .data          0x00000000000351d0        0x0 obj_cooja/mtype603.a(timer.o)
 .data          0x00000000000351d0       0x10 obj_cooja/mtype603.a(serial-line.o)
                0x00000000000351d0                serial_line_process
 .data          0x00000000000351e0        0x0 obj_cooja/mtype603.a(list.o)
 .data          0x00000000000351e0        0x0 obj_cooja/mtype603.a(ringbuf.o)
 .data          0x00000000000351e0        0x4 obj_cooja/mtype603.a(packetbuf.o)
 .data          0x00000000000351e4        0x4 obj_cooja/mtype603.a(netstack.o)
 .data          0x00000000000351e8        0x0 obj_cooja/mtype603.a(linkaddr.o)
 .data          0x00000000000351e8        0x0 obj_cooja/mtype603.a(csma.o)
 .data          0x00000000000351e8       0x28 obj_cooja/mtype603.a(csma-output.o)
 .data          0x0000000000035210        0x0 obj_cooja/mtype603.a(uip-ds6.o)
 .data          0x0000000000035210       0x14 obj_cooja/mtype603.a(tcp-socket.o)
                0x0000000000035214                tcp_socket_process
 .data          0x0000000000035224       0x10 obj_cooja/mtype603.a(tcpip.o)
                0x0000000000035224                tcpip_process
 .data          0x0000000000035234       0x10 obj_cooja/mtype603.a(uip-ds6-route.o)
 .data          0x0000000000035244        0x0 obj_cooja/mtype603.a(uip6.o)
 .data          0x0000000000035244       0x14 obj_cooja/mtype603.a(uip-ds6-nbr.o)
                0x0000000000035254                ds6_neighbors
 .data          0x0000000000035258        0xc obj_cooja/mtype603.a(uip-nd6.o)
 .data          0x0000000000035264       0x10 obj_cooja/mtype603.a(simple-udp.o)
                0x0000000000035264                simple_udp_process
 .data          0x0000000000035274        0x0 obj_cooja/mtype603.a(sicslowpan.o)
 .data          0x0000000000035274        0x0 obj_cooja/mtype603.a(uiplib.o)
 .data          0x0000000000035274        0x0 obj_cooja/mtype603.a(rpl.o)
 .data          0x0000000000035274       0x30 obj_cooja/mtype603.a(rpl-icmp6.o)
 .data          0x00000000000352a4        0x0 obj_cooja/mtype603.a(rpl-dag.o)
 .data          0x00000000000352a4        0x0 obj_cooja/mtype603.a(rpl-dag-root.o)
 .data          0x00000000000352a4        0x0 obj_cooja/mtype603.a(watchdog.o)
 .data          0x00000000000352a4        0x0 obj_cooja/mtype603.a(stimer.o)
 .data          0x00000000000352a4        0x0 obj_cooja/mtype603.a(memb.o)
 .data          0x00000000000352a4       0x18 obj_cooja/mtype603.a(queuebuf.o)
 .data          0x00000000000352bc       0x10 obj_cooja/mtype603.a(nbr-table.o)
 .data          0x00000000000352cc       0x14 obj_cooja/mtype603.a(link-stats.o)
 .data          0x00000000000352e0        0x0 obj_cooja/mtype603.a(mac-sequence.o)
 .data          0x00000000000352e0        0x0 obj_cooja/mtype603.a(mac.o)
 .data          0x00000000000352e0        0x0 obj_cooja/mtype603.a(framer-802154.o)
 .data          0x00000000000352e0        0x2 obj_cooja/mtype603.a(frame802154.o)
 .data          0x00000000000352e2        0x0 obj_cooja/mtype603.a(uipbuf.o)
 *fill*         0x00000000000352e2        0x2 
 .data          0x00000000000352e4       0x20 obj_cooja/mtype603.a(uip-icmp6.o)
 .data          0x0000000000035304       0x10 obj_cooja/mtype603.a(uip-sr.o)
 .data          0x0000000000035314        0xc obj_cooja/mtype603.a(uip-packetqueue)
 .data          0x0000000000035320        0x0 obj_cooja/mtype603.a(uip-udp-packet.)
 .data          0x0000000000035320        0x0 obj_cooja/mtype603.a(rpl-nbr-policy.)
 .data          0x0000000000035320       0x14 obj_cooja/mtype603.a(rpl-neighbor.o)
                0x0000000000035330                rpl_neighbors
 .data          0x0000000000035334        0x0 obj_cooja/mtype603.a(rpl-timers.o)
 .data          0x0000000000035334        0x0 obj_cooja/mtype603.a(rpl-ext-header.)
 *fill*         0x0000000000035334        0xc 
 .data          0x0000000000035340       0x24 obj_cooja/mtype603.a(rpl-mrhof.o)
                0x0000000000035340                rpl_mrhof
 .data          0x0000000000035364        0x0 /usr/lib/gcc/i686-linux-gnu/5/crtendS.o
 .data          0x0000000000035364        0x0 /usr/lib/gcc/i686-linux-gnu/5/../../../i386-linux-gnu/crtn.o

.tm_clone_table
                0x0000000000035364        0x0
 .tm_clone_table
                0x0000000000035364        0x0 /usr/lib/gcc/i686-linux-gnu/5/crtbeginS.o
 .tm_clone_table
                0x0000000000035364        0x0 /usr/lib/gcc/i686-linux-gnu/5/crtendS.o

.data1
 *(.data1)
                0x0000000000035364                _edata = .
                [!provide]                        PROVIDE (edata, .)
                0x0000000000035364                . = .
                0x0000000000035364                __bss_start = .

.bss            0x0000000000035380    0x14de0
 *(.dynbss)
 .dynbss        0x0000000000035380        0x0 /usr/lib/gcc/i686-linux-gnu/5/../../../i386-linux-gnu/crti.o
 *(.bss .bss.* .gnu.linkonce.b.*)
 .bss           0x0000000000035380        0x0 /usr/lib/gcc/i686-linux-gnu/5/../../../i386-linux-gnu/crti.o
 .bss           0x0000000000035380        0x1 /usr/lib/gcc/i686-linux-gnu/5/crtbeginS.o
 *fill*         0x0000000000035381       0x1f 
 .bss           0x00000000000353a0      0xe40 udp-client.o
 .bss           0x00000000000361e0     0x2030 obj_cooja/mtype603.o
 .bss           0x0000000000038210        0x1 obj_cooja/mtype603.a(simEnvChange.o)
                0x0000000000038210                simDontFallAsleep
 *fill*         0x0000000000038211        0x3 
 .bss           0x0000000000038214        0x4 obj_cooja/mtype603.a(cooja_mt.o)
 .bss           0x0000000000038218        0x4 obj_cooja/mtype603.a(cooja_mtarch.o)
 .bss           0x000000000003821c        0x0 obj_cooja/mtype603.a(rtimer-arch.o)
 .bss           0x000000000003821c        0x0 obj_cooja/mtype603.a(beep.o)
 .bss           0x000000000003821c        0x8 obj_cooja/mtype603.a(button-sensor.o)
 .bss           0x0000000000038224        0x0 obj_cooja/mtype603.a(leds-arch.o)
 .bss           0x0000000000038224        0x0 obj_cooja/mtype603.a(moteid.o)
 .bss           0x0000000000038224        0x1 obj_cooja/mtype603.a(pir-sensor.o)
                0x0000000000038224                simPirValue
 *fill*         0x0000000000038225        0x3 
 .bss           0x0000000000038228        0x4 obj_cooja/mtype603.a(rs232.o)
 .bss           0x000000000003822c        0x1 obj_cooja/mtype603.a(vib-sensor.o)
                0x000000000003822c                simVibValue
 .bss           0x000000000003822d        0x0 obj_cooja/mtype603.a(clock.o)
 *fill*         0x000000000003822d       0x13 
 .bss           0x0000000000038240     0x2020 obj_cooja/mtype603.a(cooja-log.o)
 .bss           0x000000000003a260      0xfc0 obj_cooja/mtype603.a(cfs-cooja.o)
                0x000000000003a260                simCFSData
                0x000000000003b200                simCFSSize
                0x000000000003b204                simCFSChanged
                0x000000000003b208                simCFSRead
                0x000000000003b20c                simCFSWritten
 .bss           0x000000000003b220       0x24 obj_cooja/mtype603.a(cooja-radio.o)
                0x000000000003b220                simReceiving
                0x000000000003b224                simInSize
                0x000000000003b228                simLastPacketTimestamp
                0x000000000003b230                simOutSize
 .bss           0x000000000003b244        0xc obj_cooja/mtype603.a(eeprom.o)
                0x000000000003b244                simEEPROMChanged
                0x000000000003b248                simEEPROMRead
                0x000000000003b24c                simEEPROMWritten
 .bss           0x000000000003b250        0x0 obj_cooja/mtype603.a(random.o)
 .bss           0x000000000003b250        0xc obj_cooja/mtype603.a(sensors.o)
 .bss           0x000000000003b25c        0x0 obj_cooja/mtype603.a(leds.o)
 .bss           0x000000000003b25c       0x15 obj_cooja/mtype603.a(mqtt.o)
 .bss           0x000000000003b271        0x0 obj_cooja/mtype603.a(contiki-main.o)
 .bss           0x000000000003b271        0x0 obj_cooja/mtype603.a(autostart.o)
 *fill*         0x000000000003b271        0x3 
 .bss           0x000000000003b274        0x5 obj_cooja/mtype603.a(ctimer.o)
 .bss           0x000000000003b279        0x0 obj_cooja/mtype603.a(energest.o)
 *fill*         0x000000000003b279        0x3 
 .bss           0x000000000003b27c        0x8 obj_cooja/mtype603.a(etimer.o)
 .bss           0x000000000003b284       0x28 obj_cooja/mtype603.a(log.o)
                0x000000000003b284                curr_log_level_rpl
                0x000000000003b288                curr_log_level_tcpip
                0x000000000003b28c                curr_log_level_ipv6
                0x000000000003b290                curr_log_level_6lowpan
                0x000000000003b294                curr_log_level_nullnet
                0x000000000003b298                curr_log_level_mac
                0x000000000003b29c                curr_log_level_framer
                0x000000000003b2a0                curr_log_level_6top
                0x000000000003b2a4                curr_log_level_coap
                0x000000000003b2a8                curr_log_level_lwm2m
 *fill*         0x000000000003b2ac       0x14 
 .bss           0x000000000003b2c0      0x1a1 obj_cooja/mtype603.a(process.o)
                0x000000000003b2c0                process_list
                0x000000000003b2c4                process_current
 *fill*         0x000000000003b461        0x3 
 .bss           0x000000000003b464        0x4 obj_cooja/mtype603.a(rtimer.o)
 .bss           0x000000000003b468        0x2 obj_cooja/mtype603.a(node-id.o)
                0x000000000003b468                node_id
 .bss           0x000000000003b46a        0x0 obj_cooja/mtype603.a(timer.o)
 *fill*         0x000000000003b46a       0x16 
 .bss           0x000000000003b480      0x140 obj_cooja/mtype603.a(serial-line.o)
 .bss           0x000000000003b5c0        0x0 obj_cooja/mtype603.a(list.o)
 .bss           0x000000000003b5c0        0x0 obj_cooja/mtype603.a(ringbuf.o)
 .bss           0x000000000003b5c0       0xa0 obj_cooja/mtype603.a(packetbuf.o)
 .bss           0x000000000003b660        0x4 obj_cooja/mtype603.a(netstack.o)
 .bss           0x000000000003b664        0x0 obj_cooja/mtype603.a(linkaddr.o)
 .bss           0x000000000003b664        0x0 obj_cooja/mtype603.a(csma.o)
 *fill*         0x000000000003b664       0x1c 
 .bss           0x000000000003b680      0x726 obj_cooja/mtype603.a(csma-output.o)
 *fill*         0x000000000003bda6        0x2 
 .bss           0x000000000003bda8       0x20 obj_cooja/mtype603.a(uip-ds6.o)
 .bss           0x000000000003bdc8        0x5 obj_cooja/mtype603.a(tcp-socket.o)
 *fill*         0x000000000003bdcd       0x13 
 .bss           0x000000000003bde0       0xc4 obj_cooja/mtype603.a(tcpip.o)
 *fill*         0x000000000003bea4       0x1c 
 .bss           0x000000000003bec0       0x60 obj_cooja/mtype603.a(uip-ds6-route.o)
 .bss           0x000000000003bf20        0xc obj_cooja/mtype603.a(uip6.o)
                0x000000000003bf20                uip_ext_bitmap
                0x000000000003bf21                uip_ext_len
                0x000000000003bf22                uip_ext_opt_offset
 *fill*         0x000000000003bf2c       0x14 
 .bss           0x000000000003bf40     0x1c20 obj_cooja/mtype603.a(uip-ds6-nbr.o)
 .bss           0x000000000003db60       0x10 obj_cooja/mtype603.a(uip-nd6.o)
 *fill*         0x000000000003db70       0x10 
 .bss           0x000000000003db80      0x520 obj_cooja/mtype603.a(simple-udp.o)
 .bss           0x000000000003e0a0      0x724 obj_cooja/mtype603.a(sicslowpan.o)
 .bss           0x000000000003e7c4        0x0 obj_cooja/mtype603.a(uiplib.o)
 .bss           0x000000000003e7c4        0x1 obj_cooja/mtype603.a(rpl.o)
 .bss           0x000000000003e7c5        0x0 obj_cooja/mtype603.a(rpl-icmp6.o)
 .bss           0x000000000003e7c5        0x0 obj_cooja/mtype603.a(rpl-dag.o)
 *fill*         0x000000000003e7c5        0x3 
 .bss           0x000000000003e7c8       0x11 obj_cooja/mtype603.a(rpl-dag-root.o)
 .bss           0x000000000003e7d9        0x0 obj_cooja/mtype603.a(watchdog.o)
 .bss           0x000000000003e7d9        0x0 obj_cooja/mtype603.a(stimer.o)
 .bss           0x000000000003e7d9        0x0 obj_cooja/mtype603.a(memb.o)
 *fill*         0x000000000003e7d9        0x7 
 .bss           0x000000000003e7e0     0x2c80 obj_cooja/mtype603.a(queuebuf.o)
 .bss           0x0000000000041460     0x1214 obj_cooja/mtype603.a(nbr-table.o)
 *fill*         0x0000000000042674        0xc 
 .bss           0x0000000000042680      0xe10 obj_cooja/mtype603.a(link-stats.o)
 *fill*         0x0000000000043490       0x10 
 .bss           0x00000000000434a0      0x100 obj_cooja/mtype603.a(mac-sequence.o)
 .bss           0x00000000000435a0        0x0 obj_cooja/mtype603.a(mac.o)
 .bss           0x00000000000435a0        0x2 obj_cooja/mtype603.a(framer-802154.o)
 .bss           0x00000000000435a2        0x0 obj_cooja/mtype603.a(frame802154.o)
 *fill*         0x00000000000435a2        0x2 
 .bss           0x00000000000435a4        0xc obj_cooja/mtype603.a(uipbuf.o)
 .bss           0x00000000000435b0       0x18 obj_cooja/mtype603.a(uip-icmp6.o)
 *fill*         0x00000000000435c8       0x18 
 .bss           0x00000000000435e0     0x1d80 obj_cooja/mtype603.a(uip-sr.o)
 .bss           0x0000000000045360      0xa78 obj_cooja/mtype603.a(uip-packetqueue)
 .bss           0x0000000000045dd8        0x0 obj_cooja/mtype603.a(uip-udp-packet.)
 .bss           0x0000000000045dd8        0xe obj_cooja/mtype603.a(rpl-nbr-policy.)
 *fill*         0x0000000000045de6       0x1a 
 .bss           0x0000000000045e00      0x960 obj_cooja/mtype603.a(rpl-neighbor.o)
 .bss           0x0000000000046760       0x40 obj_cooja/mtype603.a(rpl-timers.o)
 .bss           0x00000000000467a0        0x0 obj_cooja/mtype603.a(rpl-ext-header.)
 .bss           0x00000000000467a0        0x0 obj_cooja/mtype603.a(rpl-mrhof.o)
 .bss           0x00000000000467a0        0x0 /usr/lib/gcc/i686-linux-gnu/5/crtendS.o
 .bss           0x00000000000467a0        0x0 /usr/lib/gcc/i686-linux-gnu/5/../../../i386-linux-gnu/crtn.o
 *(COMMON)
 COMMON         0x00000000000467a0        0x8 obj_cooja/mtype603.o
                0x00000000000467a0                referenceVar
                0x00000000000467a4                sensors_flags
 COMMON         0x00000000000467a8        0xc obj_cooja/mtype603.a(simEnvChange.o)
                0x00000000000467a8                simEtimerPending
                0x00000000000467ac                simProcessRunValue
                0x00000000000467b0                simEtimerNextExpirationTime
 *fill*         0x00000000000467b4        0x4 
 COMMON         0x00000000000467b8       0x18 obj_cooja/mtype603.a(rtimer-arch.o)
                0x00000000000467b8                simRtimerPending
                0x00000000000467c0                simRtimerCurrentTicks
                0x00000000000467c8                simRtimerNextExpirationTime
 COMMON         0x00000000000467d0        0x1 obj_cooja/mtype603.a(beep.o)
                0x00000000000467d0                simBeeped
 COMMON         0x00000000000467d1        0x3 obj_cooja/mtype603.a(button-sensor.o)
                0x00000000000467d1                simButtonIsActive
                0x00000000000467d2                simButtonIsDown
                0x00000000000467d3                simButtonChanged
 COMMON         0x00000000000467d4        0x1 obj_cooja/mtype603.a(leds-arch.o)
                0x00000000000467d4                simLedsValue
 *fill*         0x00000000000467d5        0x3 
 COMMON         0x00000000000467d8        0xc obj_cooja/mtype603.a(moteid.o)
                0x00000000000467d8                simRandomSeed
                0x00000000000467dc                simMoteIDChanged
                0x00000000000467e0                simMoteID
 COMMON         0x00000000000467e4        0x2 obj_cooja/mtype603.a(pir-sensor.o)
                0x00000000000467e4                simPirIsActive
                0x00000000000467e5                simPirChanged
 *fill*         0x00000000000467e6       0x1a 
 COMMON         0x0000000000046800      0x820 obj_cooja/mtype603.a(rs232.o)
                0x0000000000046800                simSerialReceivingFlag
                0x0000000000046804                simSerialReceivingLength
                0x0000000000046820                simSerialReceivingData
 COMMON         0x0000000000047020        0x2 obj_cooja/mtype603.a(vib-sensor.o)
                0x0000000000047020                simVibChanged
                0x0000000000047021                simVibIsActive
 *fill*         0x0000000000047022        0x2 
 COMMON         0x0000000000047024        0x4 obj_cooja/mtype603.a(clock.o)
                0x0000000000047024                simCurrentTime
 *fill*         0x0000000000047028       0x18 
 COMMON         0x0000000000047040     0x2020 obj_cooja/mtype603.a(cooja-log.o)
                0x0000000000047040                simLoggedLength
                0x0000000000047044                simLoggedFlag
                0x0000000000047060                simLoggedData
 COMMON         0x0000000000049060      0x100 obj_cooja/mtype603.a(cooja-radio.o)
                0x0000000000049060                simOutDataBuffer
                0x00000000000490e0                simInDataBuffer
 COMMON         0x0000000000049160      0x400 obj_cooja/mtype603.a(eeprom.o)
                0x0000000000049160                simEEPROMData
 COMMON         0x0000000000049560        0x1 obj_cooja/mtype603.a(sensors.o)
                0x0000000000049560                sensors_event
 COMMON         0x0000000000049561        0x1 obj_cooja/mtype603.a(mqtt.o)
                0x0000000000049561                mqtt_update_event
 *fill*         0x0000000000049562        0x2 
 COMMON         0x0000000000049564       0x50 obj_cooja/mtype603.a(contiki-main.o)
                0x0000000000049564                eb_per_time_source
                0x0000000000049578                unicast_per_neighbor_rpl_storing
                0x000000000004958c                unicast_per_neighbor_rpl_ns
                0x00000000000495a0                default_common
 COMMON         0x00000000000495b4        0x1 obj_cooja/mtype603.a(serial-line.o)
                0x00000000000495b4                serial_line_event_message
 *fill*         0x00000000000495b5        0x3 
 COMMON         0x00000000000495b8       0x2c obj_cooja/mtype603.a(packetbuf.o)
                0x00000000000495b8                packetbuf_attrs
                0x00000000000495d4                packetbuf_addrs
 COMMON         0x00000000000495e4        0x8 obj_cooja/mtype603.a(linkaddr.o)
                0x00000000000495e4                linkaddr_node_addr
 *fill*         0x00000000000495ec       0x14 
 COMMON         0x0000000000049600      0x181 obj_cooja/mtype603.a(uip-ds6.o)
                0x0000000000049600                uip_ds6_prefix_list
                0x0000000000049660                uip_ds6_timer_periodic
                0x0000000000049670                uip_ds6_netif_addr_list_offset
                0x0000000000049680                uip_ds6_if
                0x0000000000049778                uip_ds6_timer_ra
                0x0000000000049780                uip_ds6_addr_size
 COMMON         0x0000000000049781        0x1 obj_cooja/mtype603.a(tcpip.o)
                0x0000000000049781                tcpip_event
 *fill*         0x0000000000049782       0x1e 
 COMMON         0x00000000000497a0      0x80c obj_cooja/mtype603.a(uip6.o)
                0x00000000000497a0                uip_slen
                0x00000000000497a4                uip_acc32
                0x00000000000497c0                uip_conns
                0x0000000000049940                uip_lladdr
                0x0000000000049948                uip_appdata
                0x000000000004994c                uip_flags
                0x0000000000049960                uip_aligned_buf
                0x0000000000049e60                uip_listenports
                0x0000000000049e88                uip_len
                0x0000000000049e8c                uip_sappdata
                0x0000000000049ea0                uip_udp_conns
                0x0000000000049fa0                uip_udp_conn
                0x0000000000049fa4                uip_next_hdr
                0x0000000000049fa8                uip_conn
 COMMON         0x0000000000049fac       0x10 obj_cooja/mtype603.a(rpl.o)
                0x0000000000049fac                rpl_multicast_addr
 *fill*         0x0000000000049fbc        0x4 
 COMMON         0x0000000000049fc0      0x164 obj_cooja/mtype603.a(rpl-dag.o)
                0x0000000000049fc0                curr_instance
 *fill*         0x000000000004a124       0x1c 
 COMMON         0x000000000004a140       0x20 obj_cooja/mtype603.a(link-stats.o)
                0x000000000004a140                periodic_timer
                0x000000000004a160                . = ALIGN ((. != 0x0)?0x4:0x1)
                0x000000000004a160                . = ALIGN (0x4)
                0x000000000004a160                . = SEGMENT_START ("ldata-segment", .)
                0x000000000004a160                . = ALIGN (0x4)
                0x000000000004a160                _end = .
                [!provide]                        PROVIDE (end, .)
                0x000000000004a160                . = DATA_SEGMENT_END (.)

.stab
 *(.stab)

.stabstr
 *(.stabstr)

.stab.excl
 *(.stab.excl)

.stab.exclstr
 *(.stab.exclstr)

.stab.index
 *(.stab.index)

.stab.indexstr
 *(.stab.indexstr)

.comment        0x0000000000000000       0x35
 *(.comment)
 .comment       0x0000000000000000       0x35 /usr/lib/gcc/i686-linux-gnu/5/crtbeginS.o
                                         0x36 (size before relaxing)
 .comment       0x0000000000000035       0x36 udp-client.o
 .comment       0x0000000000000035       0x36 obj_cooja/mtype603.o
 .comment       0x0000000000000035       0x36 obj_cooja/mtype603.a(simEnvChange.o)
 .comment       0x0000000000000035       0x36 obj_cooja/mtype603.a(cooja_mt.o)
 .comment       0x0000000000000035       0x36 obj_cooja/mtype603.a(cooja_mtarch.o)
 .comment       0x0000000000000035       0x36 obj_cooja/mtype603.a(rtimer-arch.o)
 .comment       0x0000000000000035       0x36 obj_cooja/mtype603.a(beep.o)
 .comment       0x0000000000000035       0x36 obj_cooja/mtype603.a(button-sensor.o)
 .comment       0x0000000000000035       0x36 obj_cooja/mtype603.a(leds-arch.o)
 .comment       0x0000000000000035       0x36 obj_cooja/mtype603.a(moteid.o)
 .comment       0x0000000000000035       0x36 obj_cooja/mtype603.a(pir-sensor.o)
 .comment       0x0000000000000035       0x36 obj_cooja/mtype603.a(rs232.o)
 .comment       0x0000000000000035       0x36 obj_cooja/mtype603.a(vib-sensor.o)
 .comment       0x0000000000000035       0x36 obj_cooja/mtype603.a(clock.o)
 .comment       0x0000000000000035       0x36 obj_cooja/mtype603.a(cooja-log.o)
 .comment       0x0000000000000035       0x36 obj_cooja/mtype603.a(cfs-cooja.o)
 .comment       0x0000000000000035       0x36 obj_cooja/mtype603.a(cooja-radio.o)
 .comment       0x0000000000000035       0x36 obj_cooja/mtype603.a(eeprom.o)
 .comment       0x0000000000000035       0x36 obj_cooja/mtype603.a(random.o)
 .comment       0x0000000000000035       0x36 obj_cooja/mtype603.a(sensors.o)
 .comment       0x0000000000000035       0x36 obj_cooja/mtype603.a(leds.o)
 .comment       0x0000000000000035       0x36 obj_cooja/mtype603.a(mqtt.o)
 .comment       0x0000000000000035       0x36 obj_cooja/mtype603.a(contiki-main.o)
 .comment       0x0000000000000035       0x36 obj_cooja/mtype603.a(autostart.o)
 .comment       0x0000000000000035       0x36 obj_cooja/mtype603.a(ctimer.o)
 .comment       0x0000000000000035       0x36 obj_cooja/mtype603.a(energest.o)
 .comment       0x0000000000000035       0x36 obj_cooja/mtype603.a(etimer.o)
 .comment       0x0000000000000035       0x36 obj_cooja/mtype603.a(log.o)
 .comment       0x0000000000000035       0x36 obj_cooja/mtype603.a(process.o)
 .comment       0x0000000000000035       0x36 obj_cooja/mtype603.a(rtimer.o)
 .comment       0x0000000000000035       0x36 obj_cooja/mtype603.a(node-id.o)
 .comment       0x0000000000000035       0x36 obj_cooja/mtype603.a(timer.o)
 .comment       0x0000000000000035       0x36 obj_cooja/mtype603.a(serial-line.o)
 .comment       0x0000000000000035       0x36 obj_cooja/mtype603.a(list.o)
 .comment       0x0000000000000035       0x36 obj_cooja/mtype603.a(ringbuf.o)
 .comment       0x0000000000000035       0x36 obj_cooja/mtype603.a(packetbuf.o)
 .comment       0x0000000000000035       0x36 obj_cooja/mtype603.a(netstack.o)
 .comment       0x0000000000000035       0x36 obj_cooja/mtype603.a(linkaddr.o)
 .comment       0x0000000000000035       0x36 obj_cooja/mtype603.a(csma.o)
 .comment       0x0000000000000035       0x36 obj_cooja/mtype603.a(csma-output.o)
 .comment       0x0000000000000035       0x36 obj_cooja/mtype603.a(uip-ds6.o)
 .comment       0x0000000000000035       0x36 obj_cooja/mtype603.a(tcp-socket.o)
 .comment       0x0000000000000035       0x36 obj_cooja/mtype603.a(tcpip.o)
 .comment       0x0000000000000035       0x36 obj_cooja/mtype603.a(uip-ds6-route.o)
 .comment       0x0000000000000035       0x36 obj_cooja/mtype603.a(uip6.o)
 .comment       0x0000000000000035       0x36 obj_cooja/mtype603.a(uip-ds6-nbr.o)
 .comment       0x0000000000000035       0x36 obj_cooja/mtype603.a(uip-nd6.o)
 .comment       0x0000000000000035       0x36 obj_cooja/mtype603.a(simple-udp.o)
 .comment       0x0000000000000035       0x36 obj_cooja/mtype603.a(sicslowpan.o)
 .comment       0x0000000000000035       0x36 obj_cooja/mtype603.a(uiplib.o)
 .comment       0x0000000000000035       0x36 obj_cooja/mtype603.a(rpl.o)
 .comment       0x0000000000000035       0x36 obj_cooja/mtype603.a(rpl-icmp6.o)
 .comment       0x0000000000000035       0x36 obj_cooja/mtype603.a(rpl-dag.o)
 .comment       0x0000000000000035       0x36 obj_cooja/mtype603.a(rpl-dag-root.o)
 .comment       0x0000000000000035       0x36 obj_cooja/mtype603.a(watchdog.o)
 .comment       0x0000000000000035       0x36 obj_cooja/mtype603.a(stimer.o)
 .comment       0x0000000000000035       0x36 obj_cooja/mtype603.a(memb.o)
 .comment       0x0000000000000035       0x36 obj_cooja/mtype603.a(queuebuf.o)
 .comment       0x0000000000000035       0x36 obj_cooja/mtype603.a(nbr-table.o)
 .comment       0x0000000000000035       0x36 obj_cooja/mtype603.a(link-stats.o)
 .comment       0x0000000000000035       0x36 obj_cooja/mtype603.a(mac-sequence.o)
 .comment       0x0000000000000035       0x36 obj_cooja/mtype603.a(mac.o)
 .comment       0x0000000000000035       0x36 obj_cooja/mtype603.a(framer-802154.o)
 .comment       0x0000000000000035       0x36 obj_cooja/mtype603.a(frame802154.o)
 .comment       0x0000000000000035       0x36 obj_cooja/mtype603.a(uipbuf.o)
 .comment       0x0000000000000035       0x36 obj_cooja/mtype603.a(uip-icmp6.o)
 .comment       0x0000000000000035       0x36 obj_cooja/mtype603.a(uip-sr.o)
 .comment       0x0000000000000035       0x36 obj_cooja/mtype603.a(uip-packetqueue)
 .comment       0x0000000000000035       0x36 obj_cooja/mtype603.a(uip-udp-packet.)
 .comment       0x0000000000000035       0x36 obj_cooja/mtype603.a(rpl-nbr-policy.)
 .comment       0x0000000000000035       0x36 obj_cooja/mtype603.a(rpl-neighbor.o)
 .comment       0x0000000000000035       0x36 obj_cooja/mtype603.a(rpl-timers.o)
 .comment       0x0000000000000035       0x36 obj_cooja/mtype603.a(rpl-ext-header.)
 .comment       0x0000000000000035       0x36 obj_cooja/mtype603.a(rpl-mrhof.o)
 .comment       0x0000000000000035       0x36 /usr/lib/gcc/i686-linux-gnu/5/crtendS.o

.debug
 *(.debug)

.line
 *(.line)

.debug_srcinfo
 *(.debug_srcinfo)

.debug_sfnames
 *(.debug_sfnames)

.debug_aranges  0x0000000000000000      0x940
 *(.debug_aranges)
 .debug_aranges
                0x0000000000000000       0x20 udp-client.o
 .debug_aranges
                0x0000000000000020       0x20 obj_cooja/mtype603.o
 .debug_aranges
                0x0000000000000040       0x20 obj_cooja/mtype603.a(simEnvChange.o)
 .debug_aranges
                0x0000000000000060       0x20 obj_cooja/mtype603.a(cooja_mt.o)
 .debug_aranges
                0x0000000000000080       0x20 obj_cooja/mtype603.a(cooja_mtarch.o)
 .debug_aranges
                0x00000000000000a0       0x20 obj_cooja/mtype603.a(rtimer-arch.o)
 .debug_aranges
                0x00000000000000c0       0x20 obj_cooja/mtype603.a(beep.o)
 .debug_aranges
                0x00000000000000e0       0x20 obj_cooja/mtype603.a(button-sensor.o)
 .debug_aranges
                0x0000000000000100       0x20 obj_cooja/mtype603.a(leds-arch.o)
 .debug_aranges
                0x0000000000000120       0x20 obj_cooja/mtype603.a(moteid.o)
 .debug_aranges
                0x0000000000000140       0x20 obj_cooja/mtype603.a(pir-sensor.o)
 .debug_aranges
                0x0000000000000160       0x20 obj_cooja/mtype603.a(rs232.o)
 .debug_aranges
                0x0000000000000180       0x20 obj_cooja/mtype603.a(vib-sensor.o)
 .debug_aranges
                0x00000000000001a0       0x20 obj_cooja/mtype603.a(clock.o)
 .debug_aranges
                0x00000000000001c0       0x20 obj_cooja/mtype603.a(cooja-log.o)
 .debug_aranges
                0x00000000000001e0       0x20 obj_cooja/mtype603.a(cfs-cooja.o)
 .debug_aranges
                0x0000000000000200       0x20 obj_cooja/mtype603.a(cooja-radio.o)
 .debug_aranges
                0x0000000000000220       0x20 obj_cooja/mtype603.a(eeprom.o)
 .debug_aranges
                0x0000000000000240       0x20 obj_cooja/mtype603.a(random.o)
 .debug_aranges
                0x0000000000000260       0x20 obj_cooja/mtype603.a(sensors.o)
 .debug_aranges
                0x0000000000000280       0x20 obj_cooja/mtype603.a(leds.o)
 .debug_aranges
                0x00000000000002a0       0x20 obj_cooja/mtype603.a(mqtt.o)
 .debug_aranges
                0x00000000000002c0       0x20 obj_cooja/mtype603.a(contiki-main.o)
 .debug_aranges
                0x00000000000002e0       0x20 obj_cooja/mtype603.a(autostart.o)
 .debug_aranges
                0x0000000000000300       0x20 obj_cooja/mtype603.a(ctimer.o)
 .debug_aranges
                0x0000000000000320       0x20 obj_cooja/mtype603.a(energest.o)
 .debug_aranges
                0x0000000000000340       0x20 obj_cooja/mtype603.a(etimer.o)
 .debug_aranges
                0x0000000000000360       0x20 obj_cooja/mtype603.a(log.o)
 .debug_aranges
                0x0000000000000380       0x20 obj_cooja/mtype603.a(process.o)
 .debug_aranges
                0x00000000000003a0       0x20 obj_cooja/mtype603.a(rtimer.o)
 .debug_aranges
                0x00000000000003c0       0x20 obj_cooja/mtype603.a(node-id.o)
 .debug_aranges
                0x00000000000003e0       0x20 obj_cooja/mtype603.a(timer.o)
 .debug_aranges
                0x0000000000000400       0x20 obj_cooja/mtype603.a(serial-line.o)
 .debug_aranges
                0x0000000000000420       0x20 obj_cooja/mtype603.a(list.o)
 .debug_aranges
                0x0000000000000440       0x20 obj_cooja/mtype603.a(ringbuf.o)
 .debug_aranges
                0x0000000000000460       0x20 obj_cooja/mtype603.a(packetbuf.o)
 .debug_aranges
                0x0000000000000480       0x20 obj_cooja/mtype603.a(netstack.o)
 .debug_aranges
                0x00000000000004a0       0x20 obj_cooja/mtype603.a(linkaddr.o)
 .debug_aranges
                0x00000000000004c0       0x20 obj_cooja/mtype603.a(csma.o)
 .debug_aranges
                0x00000000000004e0       0x20 obj_cooja/mtype603.a(csma-output.o)
 .debug_aranges
                0x0000000000000500       0x20 obj_cooja/mtype603.a(uip-ds6.o)
 .debug_aranges
                0x0000000000000520       0x20 obj_cooja/mtype603.a(tcp-socket.o)
 .debug_aranges
                0x0000000000000540       0x20 obj_cooja/mtype603.a(tcpip.o)
 .debug_aranges
                0x0000000000000560       0x20 obj_cooja/mtype603.a(uip-ds6-route.o)
 .debug_aranges
                0x0000000000000580       0x20 obj_cooja/mtype603.a(uip6.o)
 .debug_aranges
                0x00000000000005a0       0x20 obj_cooja/mtype603.a(uip-ds6-nbr.o)
 .debug_aranges
                0x00000000000005c0       0x20 obj_cooja/mtype603.a(uip-nd6.o)
 .debug_aranges
                0x00000000000005e0       0x20 obj_cooja/mtype603.a(simple-udp.o)
 .debug_aranges
                0x0000000000000600       0x20 obj_cooja/mtype603.a(sicslowpan.o)
 .debug_aranges
                0x0000000000000620       0x20 obj_cooja/mtype603.a(uiplib.o)
 .debug_aranges
                0x0000000000000640       0x20 obj_cooja/mtype603.a(rpl.o)
 .debug_aranges
                0x0000000000000660       0x20 obj_cooja/mtype603.a(rpl-icmp6.o)
 .debug_aranges
                0x0000000000000680       0x20 obj_cooja/mtype603.a(rpl-dag.o)
 .debug_aranges
                0x00000000000006a0       0x20 obj_cooja/mtype603.a(rpl-dag-root.o)
 .debug_aranges
                0x00000000000006c0       0x20 obj_cooja/mtype603.a(watchdog.o)
 .debug_aranges
                0x00000000000006e0       0x20 obj_cooja/mtype603.a(stimer.o)
 .debug_aranges
                0x0000000000000700       0x20 obj_cooja/mtype603.a(memb.o)
 .debug_aranges
                0x0000000000000720       0x20 obj_cooja/mtype603.a(queuebuf.o)
 .debug_aranges
                0x0000000000000740       0x20 obj_cooja/mtype603.a(nbr-table.o)
 .debug_aranges
                0x0000000000000760       0x20 obj_cooja/mtype603.a(link-stats.o)
 .debug_aranges
                0x0000000000000780       0x20 obj_cooja/mtype603.a(mac-sequence.o)
 .debug_aranges
                0x00000000000007a0       0x20 obj_cooja/mtype603.a(mac.o)
 .debug_aranges
                0x00000000000007c0       0x20 obj_cooja/mtype603.a(framer-802154.o)
 .debug_aranges
                0x00000000000007e0       0x20 obj_cooja/mtype603.a(frame802154.o)
 .debug_aranges
                0x0000000000000800       0x20 obj_cooja/mtype603.a(uipbuf.o)
 .debug_aranges
                0x0000000000000820       0x20 obj_cooja/mtype603.a(uip-icmp6.o)
 .debug_aranges
                0x0000000000000840       0x20 obj_cooja/mtype603.a(uip-sr.o)
 .debug_aranges
                0x0000000000000860       0x20 obj_cooja/mtype603.a(uip-packetqueue)
 .debug_aranges
                0x0000000000000880       0x20 obj_cooja/mtype603.a(uip-udp-packet.)
 .debug_aranges
                0x00000000000008a0       0x20 obj_cooja/mtype603.a(rpl-nbr-policy.)
 .debug_aranges
                0x00000000000008c0       0x20 obj_cooja/mtype603.a(rpl-neighbor.o)
 .debug_aranges
                0x00000000000008e0       0x20 obj_cooja/mtype603.a(rpl-timers.o)
 .debug_aranges
                0x0000000000000900       0x20 obj_cooja/mtype603.a(rpl-ext-header.)
 .debug_aranges
                0x0000000000000920       0x20 obj_cooja/mtype603.a(rpl-mrhof.o)

.debug_pubnames
 *(.debug_pubnames)

.debug_info     0x0000000000000000    0x22073
 *(.debug_info .gnu.linkonce.wi.*)
 .debug_info    0x0000000000000000     0x1693 udp-client.o
 .debug_info    0x0000000000001693     0x3253 obj_cooja/mtype603.o
 .debug_info    0x00000000000048e6      0x15a obj_cooja/mtype603.a(simEnvChange.o)
 .debug_info    0x0000000000004a40      0x1af obj_cooja/mtype603.a(cooja_mt.o)
 .debug_info    0x0000000000004bef      0x212 obj_cooja/mtype603.a(cooja_mtarch.o)
 .debug_info    0x0000000000004e01      0x181 obj_cooja/mtype603.a(rtimer-arch.o)
 .debug_info    0x0000000000004f82      0x1f3 obj_cooja/mtype603.a(beep.o)
 .debug_info    0x0000000000005175      0x257 obj_cooja/mtype603.a(button-sensor.o)
 .debug_info    0x00000000000053cc      0x14f obj_cooja/mtype603.a(leds-arch.o)
 .debug_info    0x000000000000551b      0x10a obj_cooja/mtype603.a(moteid.o)
 .debug_info    0x0000000000005625      0x216 obj_cooja/mtype603.a(pir-sensor.o)
 .debug_info    0x000000000000583b      0x21e obj_cooja/mtype603.a(rs232.o)
 .debug_info    0x0000000000005a59      0x216 obj_cooja/mtype603.a(vib-sensor.o)
 .debug_info    0x0000000000005c6f      0x152 obj_cooja/mtype603.a(clock.o)
 .debug_info    0x0000000000005dc1      0x2bb obj_cooja/mtype603.a(cooja-log.o)
 .debug_info    0x000000000000607c      0x3cf obj_cooja/mtype603.a(cfs-cooja.o)
 .debug_info    0x000000000000644b      0xabf obj_cooja/mtype603.a(cooja-radio.o)
 .debug_info    0x0000000000006f0a      0x1d5 obj_cooja/mtype603.a(eeprom.o)
 .debug_info    0x00000000000070df       0xb3 obj_cooja/mtype603.a(random.o)
 .debug_info    0x0000000000007192      0x36d obj_cooja/mtype603.a(sensors.o)
 .debug_info    0x00000000000074ff      0x166 obj_cooja/mtype603.a(leds.o)
 .debug_info    0x0000000000007665     0x16c6 obj_cooja/mtype603.a(mqtt.o)
 .debug_info    0x0000000000008d2b      0xf01 obj_cooja/mtype603.a(contiki-main.o)
 .debug_info    0x0000000000009c2c      0x1a5 obj_cooja/mtype603.a(autostart.o)
 .debug_info    0x0000000000009dd1      0x46c obj_cooja/mtype603.a(ctimer.o)
 .debug_info    0x000000000000a23d       0xb5 obj_cooja/mtype603.a(energest.o)
 .debug_info    0x000000000000a2f2      0x498 obj_cooja/mtype603.a(etimer.o)
 .debug_info    0x000000000000a78a      0x472 obj_cooja/mtype603.a(log.o)
 .debug_info    0x000000000000abfc      0x4ab obj_cooja/mtype603.a(process.o)
 .debug_info    0x000000000000b0a7      0x1ba obj_cooja/mtype603.a(rtimer.o)
 .debug_info    0x000000000000b261       0xfb obj_cooja/mtype603.a(node-id.o)
 .debug_info    0x000000000000b35c      0x173 obj_cooja/mtype603.a(timer.o)
 .debug_info    0x000000000000b4cf      0x2da obj_cooja/mtype603.a(serial-line.o)
 .debug_info    0x000000000000b7a9      0x38b obj_cooja/mtype603.a(list.o)
 .debug_info    0x000000000000bb34      0x1b1 obj_cooja/mtype603.a(ringbuf.o)
 .debug_info    0x000000000000bce5      0x54c obj_cooja/mtype603.a(packetbuf.o)
 .debug_info    0x000000000000c231      0x555 obj_cooja/mtype603.a(netstack.o)
 .debug_info    0x000000000000c786      0x18b obj_cooja/mtype603.a(linkaddr.o)
 .debug_info    0x000000000000c911      0x7ee obj_cooja/mtype603.a(csma.o)
 .debug_info    0x000000000000d0ff      0xc69 obj_cooja/mtype603.a(csma-output.o)
 .debug_info    0x000000000000dd68      0xa8c obj_cooja/mtype603.a(uip-ds6.o)
 .debug_info    0x000000000000e7f4      0x957 obj_cooja/mtype603.a(tcp-socket.o)
 .debug_info    0x000000000000f14b     0x122e obj_cooja/mtype603.a(tcpip.o)
 .debug_info    0x0000000000010379      0x87a obj_cooja/mtype603.a(uip-ds6-route.o)
 .debug_info    0x0000000000010bf3     0x13ab obj_cooja/mtype603.a(uip6.o)
 .debug_info    0x0000000000011f9e      0xb45 obj_cooja/mtype603.a(uip-ds6-nbr.o)
 .debug_info    0x0000000000012ae3      0x7fb obj_cooja/mtype603.a(uip-nd6.o)
 .debug_info    0x00000000000132de      0x685 obj_cooja/mtype603.a(simple-udp.o)
 .debug_info    0x0000000000013963     0x1732 obj_cooja/mtype603.a(sicslowpan.o)
 .debug_info    0x0000000000015095      0x30b obj_cooja/mtype603.a(uiplib.o)
 .debug_info    0x00000000000153a0     0x1087 obj_cooja/mtype603.a(rpl.o)
 .debug_info    0x0000000000016427     0x105e obj_cooja/mtype603.a(rpl-icmp6.o)
 .debug_info    0x0000000000017485      0xfeb obj_cooja/mtype603.a(rpl-dag.o)
 .debug_info    0x0000000000018470      0xb13 obj_cooja/mtype603.a(rpl-dag-root.o)
 .debug_info    0x0000000000018f83       0x7b obj_cooja/mtype603.a(watchdog.o)
 .debug_info    0x0000000000018ffe      0x180 obj_cooja/mtype603.a(stimer.o)
 .debug_info    0x000000000001917e      0x1d7 obj_cooja/mtype603.a(memb.o)
 .debug_info    0x0000000000019355      0x569 obj_cooja/mtype603.a(queuebuf.o)
 .debug_info    0x00000000000198be      0x953 obj_cooja/mtype603.a(nbr-table.o)
 .debug_info    0x000000000001a211      0x64e obj_cooja/mtype603.a(link-stats.o)
 .debug_info    0x000000000001a85f      0x20c obj_cooja/mtype603.a(mac-sequence.o)
 .debug_info    0x000000000001aa6b       0xf3 obj_cooja/mtype603.a(mac.o)
 .debug_info    0x000000000001ab5e      0x512 obj_cooja/mtype603.a(framer-802154.o)
 .debug_info    0x000000000001b070      0x738 obj_cooja/mtype603.a(frame802154.o)
 .debug_info    0x000000000001b7a8      0x3a2 obj_cooja/mtype603.a(uipbuf.o)
 .debug_info    0x000000000001bb4a      0xd2a obj_cooja/mtype603.a(uip-icmp6.o)
 .debug_info    0x000000000001c874      0xaf7 obj_cooja/mtype603.a(uip-sr.o)
 .debug_info    0x000000000001d36b      0x470 obj_cooja/mtype603.a(uip-packetqueue)
 .debug_info    0x000000000001d7db      0x37a obj_cooja/mtype603.a(uip-udp-packet.)
 .debug_info    0x000000000001db55      0xc8f obj_cooja/mtype603.a(rpl-nbr-policy.)
 .debug_info    0x000000000001e7e4      0xe62 obj_cooja/mtype603.a(rpl-neighbor.o)
 .debug_info    0x000000000001f646      0xc7c obj_cooja/mtype603.a(rpl-timers.o)
 .debug_info    0x00000000000202c2     0x13f9 obj_cooja/mtype603.a(rpl-ext-header.)
 .debug_info    0x00000000000216bb      0x9b8 obj_cooja/mtype603.a(rpl-mrhof.o)

.debug_abbrev   0x0000000000000000     0x7cb0
 *(.debug_abbrev)
 .debug_abbrev  0x0000000000000000      0x2ee udp-client.o
 .debug_abbrev  0x00000000000002ee      0x294 obj_cooja/mtype603.o
 .debug_abbrev  0x0000000000000582       0xc3 obj_cooja/mtype603.a(simEnvChange.o)
 .debug_abbrev  0x0000000000000645       0xe6 obj_cooja/mtype603.a(cooja_mt.o)
 .debug_abbrev  0x000000000000072b      0x11e obj_cooja/mtype603.a(cooja_mtarch.o)
 .debug_abbrev  0x0000000000000849       0xeb obj_cooja/mtype603.a(rtimer-arch.o)
 .debug_abbrev  0x0000000000000934       0xe3 obj_cooja/mtype603.a(beep.o)
 .debug_abbrev  0x0000000000000a17      0x11c obj_cooja/mtype603.a(button-sensor.o)
 .debug_abbrev  0x0000000000000b33       0xee obj_cooja/mtype603.a(leds-arch.o)
 .debug_abbrev  0x0000000000000c21       0x9c obj_cooja/mtype603.a(moteid.o)
 .debug_abbrev  0x0000000000000cbd       0xe6 obj_cooja/mtype603.a(pir-sensor.o)
 .debug_abbrev  0x0000000000000da3      0x14a obj_cooja/mtype603.a(rs232.o)
 .debug_abbrev  0x0000000000000eed       0xe6 obj_cooja/mtype603.a(vib-sensor.o)
 .debug_abbrev  0x0000000000000fd3       0xee obj_cooja/mtype603.a(clock.o)
 .debug_abbrev  0x00000000000010c1      0x141 obj_cooja/mtype603.a(cooja-log.o)
 .debug_abbrev  0x0000000000001202      0x139 obj_cooja/mtype603.a(cfs-cooja.o)
 .debug_abbrev  0x000000000000133b      0x2ed obj_cooja/mtype603.a(cooja-radio.o)
 .debug_abbrev  0x0000000000001628       0xf5 obj_cooja/mtype603.a(eeprom.o)
 .debug_abbrev  0x000000000000171d       0x6d obj_cooja/mtype603.a(random.o)
 .debug_abbrev  0x000000000000178a      0x1c2 obj_cooja/mtype603.a(sensors.o)
 .debug_abbrev  0x000000000000194c       0xb9 obj_cooja/mtype603.a(leds.o)
 .debug_abbrev  0x0000000000001a05      0x278 obj_cooja/mtype603.a(mqtt.o)
 .debug_abbrev  0x0000000000001c7d      0x1ef obj_cooja/mtype603.a(contiki-main.o)
 .debug_abbrev  0x0000000000001e6c       0xfb obj_cooja/mtype603.a(autostart.o)
 .debug_abbrev  0x0000000000001f67      0x1a1 obj_cooja/mtype603.a(ctimer.o)
 .debug_abbrev  0x0000000000002108       0x69 obj_cooja/mtype603.a(energest.o)
 .debug_abbrev  0x0000000000002171      0x1f8 obj_cooja/mtype603.a(etimer.o)
 .debug_abbrev  0x0000000000002369      0x159 obj_cooja/mtype603.a(log.o)
 .debug_abbrev  0x00000000000024c2      0x244 obj_cooja/mtype603.a(process.o)
 .debug_abbrev  0x0000000000002706      0x126 obj_cooja/mtype603.a(rtimer.o)
 .debug_abbrev  0x000000000000282c       0x9d obj_cooja/mtype603.a(node-id.o)
 .debug_abbrev  0x00000000000028c9       0xf5 obj_cooja/mtype603.a(timer.o)
 .debug_abbrev  0x00000000000029be      0x197 obj_cooja/mtype603.a(serial-line.o)
 .debug_abbrev  0x0000000000002b55      0x136 obj_cooja/mtype603.a(list.o)
 .debug_abbrev  0x0000000000002c8b       0xdb obj_cooja/mtype603.a(ringbuf.o)
 .debug_abbrev  0x0000000000002d66      0x1da obj_cooja/mtype603.a(packetbuf.o)
 .debug_abbrev  0x0000000000002f40      0x1b9 obj_cooja/mtype603.a(netstack.o)
 .debug_abbrev  0x00000000000030f9       0xf2 obj_cooja/mtype603.a(linkaddr.o)
 .debug_abbrev  0x00000000000031eb      0x1b8 obj_cooja/mtype603.a(csma.o)
 .debug_abbrev  0x00000000000033a3      0x242 obj_cooja/mtype603.a(csma-output.o)
 .debug_abbrev  0x00000000000035e5      0x23e obj_cooja/mtype603.a(uip-ds6.o)
 .debug_abbrev  0x0000000000003823      0x23d obj_cooja/mtype603.a(tcp-socket.o)
 .debug_abbrev  0x0000000000003a60      0x39c obj_cooja/mtype603.a(tcpip.o)
 .debug_abbrev  0x0000000000003dfc      0x2b0 obj_cooja/mtype603.a(uip-ds6-route.o)
 .debug_abbrev  0x00000000000040ac      0x30d obj_cooja/mtype603.a(uip6.o)
 .debug_abbrev  0x00000000000043b9      0x25d obj_cooja/mtype603.a(uip-ds6-nbr.o)
 .debug_abbrev  0x0000000000004616      0x232 obj_cooja/mtype603.a(uip-nd6.o)
 .debug_abbrev  0x0000000000004848      0x1e8 obj_cooja/mtype603.a(simple-udp.o)
 .debug_abbrev  0x0000000000004a30      0x2e9 obj_cooja/mtype603.a(sicslowpan.o)
 .debug_abbrev  0x0000000000004d19      0x11d obj_cooja/mtype603.a(uiplib.o)
 .debug_abbrev  0x0000000000004e36      0x2d2 obj_cooja/mtype603.a(rpl.o)
 .debug_abbrev  0x0000000000005108      0x303 obj_cooja/mtype603.a(rpl-icmp6.o)
 .debug_abbrev  0x000000000000540b      0x34c obj_cooja/mtype603.a(rpl-dag.o)
 .debug_abbrev  0x0000000000005757      0x21b obj_cooja/mtype603.a(rpl-dag-root.o)
 .debug_abbrev  0x0000000000005972       0x2c obj_cooja/mtype603.a(watchdog.o)
 .debug_abbrev  0x000000000000599e       0xd9 obj_cooja/mtype603.a(stimer.o)
 .debug_abbrev  0x0000000000005a77       0xe4 obj_cooja/mtype603.a(memb.o)
 .debug_abbrev  0x0000000000005b5b      0x1a6 obj_cooja/mtype603.a(queuebuf.o)
 .debug_abbrev  0x0000000000005d01      0x201 obj_cooja/mtype603.a(nbr-table.o)
 .debug_abbrev  0x0000000000005f02      0x202 obj_cooja/mtype603.a(link-stats.o)
 .debug_abbrev  0x0000000000006104       0xed obj_cooja/mtype603.a(mac-sequence.o)
 .debug_abbrev  0x00000000000061f1       0x8d obj_cooja/mtype603.a(mac.o)
 .debug_abbrev  0x000000000000627e      0x16c obj_cooja/mtype603.a(framer-802154.o)
 .debug_abbrev  0x00000000000063ea      0x215 obj_cooja/mtype603.a(frame802154.o)
 .debug_abbrev  0x00000000000065ff      0x14a obj_cooja/mtype603.a(uipbuf.o)
 .debug_abbrev  0x0000000000006749      0x29a obj_cooja/mtype603.a(uip-icmp6.o)
 .debug_abbrev  0x00000000000069e3      0x24e obj_cooja/mtype603.a(uip-sr.o)
 .debug_abbrev  0x0000000000006c31      0x1d4 obj_cooja/mtype603.a(uip-packetqueue)
 .debug_abbrev  0x0000000000006e05      0x195 obj_cooja/mtype603.a(uip-udp-packet.)
 .debug_abbrev  0x0000000000006f9a      0x26a obj_cooja/mtype603.a(rpl-nbr-policy.)
 .debug_abbrev  0x0000000000007204      0x31d obj_cooja/mtype603.a(rpl-neighbor.o)
 .debug_abbrev  0x0000000000007521      0x297 obj_cooja/mtype603.a(rpl-timers.o)
 .debug_abbrev  0x00000000000077b8      0x313 obj_cooja/mtype603.a(rpl-ext-header.)
 .debug_abbrev  0x0000000000007acb      0x1e5 obj_cooja/mtype603.a(rpl-mrhof.o)

.debug_line     0x0000000000000000     0x93e6
 *(.debug_line .debug_line.* .debug_line_end)
 .debug_line    0x0000000000000000      0x500 udp-client.o
 .debug_line    0x0000000000000500      0x2eb obj_cooja/mtype603.o
 .debug_line    0x00000000000007eb       0xe3 obj_cooja/mtype603.a(simEnvChange.o)
 .debug_line    0x00000000000008ce       0xc2 obj_cooja/mtype603.a(cooja_mt.o)
 .debug_line    0x0000000000000990       0xbf obj_cooja/mtype603.a(cooja_mtarch.o)
 .debug_line    0x0000000000000a4f       0xd1 obj_cooja/mtype603.a(rtimer-arch.o)
 .debug_line    0x0000000000000b20       0xd2 obj_cooja/mtype603.a(beep.o)
 .debug_line    0x0000000000000bf2      0x13c obj_cooja/mtype603.a(button-sensor.o)
 .debug_line    0x0000000000000d2e       0xc8 obj_cooja/mtype603.a(leds-arch.o)
 .debug_line    0x0000000000000df6       0x8f obj_cooja/mtype603.a(moteid.o)
 .debug_line    0x0000000000000e85       0xc5 obj_cooja/mtype603.a(pir-sensor.o)
 .debug_line    0x0000000000000f4a       0xd0 obj_cooja/mtype603.a(rs232.o)
 .debug_line    0x000000000000101a       0xc5 obj_cooja/mtype603.a(vib-sensor.o)
 .debug_line    0x00000000000010df       0xc3 obj_cooja/mtype603.a(clock.o)
 .debug_line    0x00000000000011a2      0x11f obj_cooja/mtype603.a(cooja-log.o)
 .debug_line    0x00000000000012c1      0x112 obj_cooja/mtype603.a(cfs-cooja.o)
 .debug_line    0x00000000000013d3      0x281 obj_cooja/mtype603.a(cooja-radio.o)
 .debug_line    0x0000000000001654       0xc4 obj_cooja/mtype603.a(eeprom.o)
 .debug_line    0x0000000000001718       0x4a obj_cooja/mtype603.a(random.o)
 .debug_line    0x0000000000001762      0x11a obj_cooja/mtype603.a(sensors.o)
 .debug_line    0x000000000000187c       0x80 obj_cooja/mtype603.a(leds.o)
 .debug_line    0x00000000000018fc      0xd0c obj_cooja/mtype603.a(mqtt.o)
 .debug_line    0x0000000000002608      0x37d obj_cooja/mtype603.a(contiki-main.o)
 .debug_line    0x0000000000002985       0x97 obj_cooja/mtype603.a(autostart.o)
 .debug_line    0x0000000000002a1c      0x16f obj_cooja/mtype603.a(ctimer.o)
 .debug_line    0x0000000000002b8b       0x67 obj_cooja/mtype603.a(energest.o)
 .debug_line    0x0000000000002bf2      0x198 obj_cooja/mtype603.a(etimer.o)
 .debug_line    0x0000000000002d8a      0x158 obj_cooja/mtype603.a(log.o)
 .debug_line    0x0000000000002ee2      0x181 obj_cooja/mtype603.a(process.o)
 .debug_line    0x0000000000003063       0x89 obj_cooja/mtype603.a(rtimer.o)
 .debug_line    0x00000000000030ec       0x7e obj_cooja/mtype603.a(node-id.o)
 .debug_line    0x000000000000316a       0x99 obj_cooja/mtype603.a(timer.o)
 .debug_line    0x0000000000003203      0x111 obj_cooja/mtype603.a(serial-line.o)
 .debug_line    0x0000000000003314      0x113 obj_cooja/mtype603.a(list.o)
 .debug_line    0x0000000000003427       0x97 obj_cooja/mtype603.a(ringbuf.o)
 .debug_line    0x00000000000034be      0x10c obj_cooja/mtype603.a(packetbuf.o)
 .debug_line    0x00000000000035ca      0x11d obj_cooja/mtype603.a(netstack.o)
 .debug_line    0x00000000000036e7       0x77 obj_cooja/mtype603.a(linkaddr.o)
 .debug_line    0x000000000000375e      0x18c obj_cooja/mtype603.a(csma.o)
 .debug_line    0x00000000000038ea      0x352 obj_cooja/mtype603.a(csma-output.o)
 .debug_line    0x0000000000003c3c      0x317 obj_cooja/mtype603.a(uip-ds6.o)
 .debug_line    0x0000000000003f53      0x234 obj_cooja/mtype603.a(tcp-socket.o)
 .debug_line    0x0000000000004187      0x3ff obj_cooja/mtype603.a(tcpip.o)
 .debug_line    0x0000000000004586      0x218 obj_cooja/mtype603.a(uip-ds6-route.o)
 .debug_line    0x000000000000479e      0x93f obj_cooja/mtype603.a(uip6.o)
 .debug_line    0x00000000000050dd      0x262 obj_cooja/mtype603.a(uip-ds6-nbr.o)
 .debug_line    0x000000000000533f      0x2b0 obj_cooja/mtype603.a(uip-nd6.o)
 .debug_line    0x00000000000055ef      0x12d obj_cooja/mtype603.a(simple-udp.o)
 .debug_line    0x000000000000571c      0x9ae obj_cooja/mtype603.a(sicslowpan.o)
 .debug_line    0x00000000000060ca      0x1cb obj_cooja/mtype603.a(uiplib.o)
 .debug_line    0x0000000000006295      0x2eb obj_cooja/mtype603.a(rpl.o)
 .debug_line    0x0000000000006580      0x40e obj_cooja/mtype603.a(rpl-icmp6.o)
 .debug_line    0x000000000000698e      0x409 obj_cooja/mtype603.a(rpl-dag.o)
 .debug_line    0x0000000000006d97      0x1d4 obj_cooja/mtype603.a(rpl-dag-root.o)
 .debug_line    0x0000000000006f6b       0x61 obj_cooja/mtype603.a(watchdog.o)
 .debug_line    0x0000000000006fcc       0x72 obj_cooja/mtype603.a(stimer.o)
 .debug_line    0x000000000000703e       0xbf obj_cooja/mtype603.a(memb.o)
 .debug_line    0x00000000000070fd       0xee obj_cooja/mtype603.a(queuebuf.o)
 .debug_line    0x00000000000071eb      0x241 obj_cooja/mtype603.a(nbr-table.o)
 .debug_line    0x000000000000742c      0x1f3 obj_cooja/mtype603.a(link-stats.o)
 .debug_line    0x000000000000761f      0x10e obj_cooja/mtype603.a(mac-sequence.o)
 .debug_line    0x000000000000772d       0x53 obj_cooja/mtype603.a(mac.o)
 .debug_line    0x0000000000007780      0x178 obj_cooja/mtype603.a(framer-802154.o)
 .debug_line    0x00000000000078f8      0x2bb obj_cooja/mtype603.a(frame802154.o)
 .debug_line    0x0000000000007bb3       0xc4 obj_cooja/mtype603.a(uipbuf.o)
 .debug_line    0x0000000000007c77      0x2fc obj_cooja/mtype603.a(uip-icmp6.o)
 .debug_line    0x0000000000007f73      0x2e5 obj_cooja/mtype603.a(uip-sr.o)
 .debug_line    0x0000000000008258      0x15e obj_cooja/mtype603.a(uip-packetqueue)
 .debug_line    0x00000000000083b6       0xd2 obj_cooja/mtype603.a(uip-udp-packet.)
 .debug_line    0x0000000000008488      0x1d9 obj_cooja/mtype603.a(rpl-nbr-policy.)
 .debug_line    0x0000000000008661      0x36c obj_cooja/mtype603.a(rpl-neighbor.o)
 .debug_line    0x00000000000089cd      0x2f5 obj_cooja/mtype603.a(rpl-timers.o)
 .debug_line    0x0000000000008cc2      0x4cb obj_cooja/mtype603.a(rpl-ext-header.)
 .debug_line    0x000000000000918d      0x259 obj_cooja/mtype603.a(rpl-mrhof.o)

.debug_frame
 *(.debug_frame)

.debug_str      0x0000000000000000     0x8c04
 *(.debug_str)
 .debug_str     0x0000000000000000      0xf4b udp-client.o
                                       0x122f (size before relaxing)
 .debug_str     0x0000000000000f4b     0x175b obj_cooja/mtype603.o
                                       0x194e (size before relaxing)
 .debug_str     0x00000000000026a6       0x2d obj_cooja/mtype603.a(simEnvChange.o)
                                        0x1f1 (size before relaxing)
 .debug_str     0x00000000000026d3       0x55 obj_cooja/mtype603.a(cooja_mt.o)
                                        0x1f2 (size before relaxing)
 .debug_str     0x0000000000002728       0x94 obj_cooja/mtype603.a(cooja_mtarch.o)
                                        0x1f7 (size before relaxing)
 .debug_str     0x00000000000027bc      0x115 obj_cooja/mtype603.a(rtimer-arch.o)
                                        0x244 (size before relaxing)
 .debug_str     0x00000000000028d1       0xc3 obj_cooja/mtype603.a(beep.o)
                                        0x232 (size before relaxing)
 .debug_str     0x0000000000002994       0x6f obj_cooja/mtype603.a(button-sensor.o)
                                        0x262 (size before relaxing)
 .debug_str     0x0000000000002a03       0x73 obj_cooja/mtype603.a(leds-arch.o)
                                        0x217 (size before relaxing)
 .debug_str     0x0000000000002a76       0x46 obj_cooja/mtype603.a(moteid.o)
                                        0x1e8 (size before relaxing)
 .debug_str     0x0000000000002abc       0x54 obj_cooja/mtype603.a(pir-sensor.o)
                                        0x21f (size before relaxing)
 .debug_str     0x0000000000002b10       0xc0 obj_cooja/mtype603.a(rs232.o)
                                        0x27c (size before relaxing)
 .debug_str     0x0000000000002bd0       0x54 obj_cooja/mtype603.a(vib-sensor.o)
                                        0x21f (size before relaxing)
 .debug_str     0x0000000000002c24       0x70 obj_cooja/mtype603.a(clock.o)
                                        0x214 (size before relaxing)
 .debug_str     0x0000000000002c94       0xcf obj_cooja/mtype603.a(cooja-log.o)
                                        0x2a8 (size before relaxing)
 .debug_str     0x0000000000002d63      0x10b obj_cooja/mtype603.a(cfs-cooja.o)
                                        0x2be (size before relaxing)
 .debug_str     0x0000000000002e6e      0x6a8 obj_cooja/mtype603.a(cooja-radio.o)
                                        0x980 (size before relaxing)
 .debug_str     0x0000000000003516       0x98 obj_cooja/mtype603.a(eeprom.o)
                                        0x23e (size before relaxing)
 .debug_str     0x00000000000035ae       0x33 obj_cooja/mtype603.a(random.o)
                                        0x156 (size before relaxing)
 .debug_str     0x00000000000035e1       0x99 obj_cooja/mtype603.a(sensors.o)
                                        0x286 (size before relaxing)
 .debug_str     0x000000000000367a       0x5d obj_cooja/mtype603.a(leds.o)
                                        0x197 (size before relaxing)
 .debug_str     0x00000000000036d7      0x650 obj_cooja/mtype603.a(mqtt.o)
                                       0x11ea (size before relaxing)
 .debug_str     0x0000000000003d27      0x66d obj_cooja/mtype603.a(contiki-main.o)
                                        0xd02 (size before relaxing)
 .debug_str     0x0000000000004394       0x38 obj_cooja/mtype603.a(autostart.o)
                                        0x1a9 (size before relaxing)
 .debug_str     0x00000000000043cc       0xcf obj_cooja/mtype603.a(ctimer.o)
                                        0x2aa (size before relaxing)
 .debug_str     0x000000000000449b       0x4d obj_cooja/mtype603.a(energest.o)
                                        0x170 (size before relaxing)
 .debug_str     0x00000000000044e8      0x150 obj_cooja/mtype603.a(etimer.o)
                                        0x31d (size before relaxing)
 .debug_str     0x0000000000004638      0x1b1 obj_cooja/mtype603.a(log.o)
                                        0x352 (size before relaxing)
 .debug_str     0x00000000000047e9      0x154 obj_cooja/mtype603.a(process.o)
                                        0x2e8 (size before relaxing)
 .debug_str     0x000000000000493d       0xb0 obj_cooja/mtype603.a(rtimer.o)
                                        0x1f4 (size before relaxing)
 .debug_str     0x00000000000049ed       0x24 obj_cooja/mtype603.a(node-id.o)
                                        0x176 (size before relaxing)
 .debug_str     0x0000000000004a11       0x15 obj_cooja/mtype603.a(timer.o)
                                        0x198 (size before relaxing)
 .debug_str     0x0000000000004a26       0x9a obj_cooja/mtype603.a(serial-line.o)
                                        0x271 (size before relaxing)
 .debug_str     0x0000000000004ac0       0xb4 obj_cooja/mtype603.a(list.o)
                                        0x1f8 (size before relaxing)
 .debug_str     0x0000000000004b74       0x5a obj_cooja/mtype603.a(ringbuf.o)
                                        0x1ab (size before relaxing)
 .debug_str     0x0000000000004bce      0x1e3 obj_cooja/mtype603.a(packetbuf.o)
                                        0x51e (size before relaxing)
 .debug_str     0x0000000000004db1      0x167 obj_cooja/mtype603.a(netstack.o)
                                        0x446 (size before relaxing)
 .debug_str     0x0000000000004f18       0x50 obj_cooja/mtype603.a(linkaddr.o)
                                        0x1b3 (size before relaxing)
 .debug_str     0x0000000000004f68      0x231 obj_cooja/mtype603.a(csma.o)
                                        0x711 (size before relaxing)
 .debug_str     0x0000000000005199      0x27e obj_cooja/mtype603.a(csma-output.o)
                                        0x871 (size before relaxing)
 .debug_str     0x0000000000005417      0x3cb obj_cooja/mtype603.a(uip-ds6.o)
                                        0x6a3 (size before relaxing)
 .debug_str     0x00000000000057e2      0x20f obj_cooja/mtype603.a(tcp-socket.o)
                                        0x648 (size before relaxing)
 .debug_str     0x00000000000059f1      0x363 obj_cooja/mtype603.a(tcpip.o)
                                        0xabf (size before relaxing)
 .debug_str     0x0000000000005d54      0x223 obj_cooja/mtype603.a(uip-ds6-route.o)
                                        0x5cd (size before relaxing)
 .debug_str     0x0000000000005f77      0x316 obj_cooja/mtype603.a(uip6.o)
                                        0xb44 (size before relaxing)
 .debug_str     0x000000000000628d      0x1fc obj_cooja/mtype603.a(uip-ds6-nbr.o)
                                        0x86d (size before relaxing)
 .debug_str     0x0000000000006489      0x11d obj_cooja/mtype603.a(uip-nd6.o)
                                        0x5f0 (size before relaxing)
 .debug_str     0x00000000000065a6       0xbf obj_cooja/mtype603.a(simple-udp.o)
                                        0x412 (size before relaxing)
 .debug_str     0x0000000000006665      0x554 obj_cooja/mtype603.a(sicslowpan.o)
                                        0xf2f (size before relaxing)
 .debug_str     0x0000000000006bb9       0x90 obj_cooja/mtype603.a(uiplib.o)
                                        0x1fd (size before relaxing)
 .debug_str     0x0000000000006c49      0x2b2 obj_cooja/mtype603.a(rpl.o)
                                        0xb77 (size before relaxing)
 .debug_str     0x0000000000006efb      0x1dd obj_cooja/mtype603.a(rpl-icmp6.o)
                                        0xc47 (size before relaxing)
 .debug_str     0x00000000000070d8      0x2de obj_cooja/mtype603.a(rpl-dag.o)
                                        0xb37 (size before relaxing)
 .debug_str     0x00000000000073b6       0xa1 obj_cooja/mtype603.a(rpl-dag-root.o)
                                        0x829 (size before relaxing)
 .debug_str     0x0000000000007457       0x76 obj_cooja/mtype603.a(watchdog.o)
                                        0x107 (size before relaxing)
 .debug_str     0x00000000000074cd       0x6c obj_cooja/mtype603.a(stimer.o)
                                        0x19c (size before relaxing)
 .debug_str     0x0000000000007539       0x5a obj_cooja/mtype603.a(memb.o)
                                        0x18d (size before relaxing)
 .debug_str     0x0000000000007593      0x19d obj_cooja/mtype603.a(queuebuf.o)
                                        0x4e4 (size before relaxing)
 .debug_str     0x0000000000007730      0x26d obj_cooja/mtype603.a(nbr-table.o)
                                        0x59b (size before relaxing)
 .debug_str     0x000000000000799d      0x113 obj_cooja/mtype603.a(link-stats.o)
                                        0x693 (size before relaxing)
 .debug_str     0x0000000000007ab0       0x70 obj_cooja/mtype603.a(mac-sequence.o)
                                        0x36e (size before relaxing)
 .debug_str     0x0000000000007b20       0x35 obj_cooja/mtype603.a(mac.o)
                                        0x17f (size before relaxing)
 .debug_str     0x0000000000007b55       0x7f obj_cooja/mtype603.a(framer-802154.o)
                                        0x5bc (size before relaxing)
 .debug_str     0x0000000000007bd4      0x1f2 obj_cooja/mtype603.a(frame802154.o)
                                        0x56b (size before relaxing)
 .debug_str     0x0000000000007dc6       0xda obj_cooja/mtype603.a(uipbuf.o)
                                        0x337 (size before relaxing)
 .debug_str     0x0000000000007ea0      0x1e7 obj_cooja/mtype603.a(uip-icmp6.o)
                                        0x8f8 (size before relaxing)
 .debug_str     0x0000000000008087      0x17c obj_cooja/mtype603.a(uip-sr.o)
                                        0x6f8 (size before relaxing)
 .debug_str     0x0000000000008203       0xf4 obj_cooja/mtype603.a(uip-packetqueue)
                                        0x332 (size before relaxing)
 .debug_str     0x00000000000082f7       0x6b obj_cooja/mtype603.a(uip-udp-packet.)
                                        0x284 (size before relaxing)
 .debug_str     0x0000000000008362       0xa4 obj_cooja/mtype603.a(rpl-nbr-policy.)
                                        0x9fa (size before relaxing)
 .debug_str     0x0000000000008406      0x280 obj_cooja/mtype603.a(rpl-neighbor.o)
                                        0xa0f (size before relaxing)
 .debug_str     0x0000000000008686      0x300 obj_cooja/mtype603.a(rpl-timers.o)
                                        0x9e2 (size before relaxing)
 .debug_str     0x0000000000008986      0x1ba obj_cooja/mtype603.a(rpl-ext-header.)
                                        0xef7 (size before relaxing)
 .debug_str     0x0000000000008b40       0xc4 obj_cooja/mtype603.a(rpl-mrhof.o)
                                        0x700 (size before relaxing)

.debug_loc
 *(.debug_loc)

.debug_macinfo
 *(.debug_macinfo)

.debug_weaknames
 *(.debug_weaknames)

.debug_funcnames
 *(.debug_funcnames)

.debug_typenames
 *(.debug_typenames)

.debug_varnames
 *(.debug_varnames)

.debug_pubtypes
 *(.debug_pubtypes)

.debug_ranges   0x0000000000000000      0x130
 *(.debug_ranges)
 .debug_ranges  0x0000000000000000       0x18 obj_cooja/mtype603.a(etimer.o)
 .debug_ranges  0x0000000000000018       0x18 obj_cooja/mtype603.a(serial-line.o)
 .debug_ranges  0x0000000000000030       0x48 obj_cooja/mtype603.a(csma-output.o)
 .debug_ranges  0x0000000000000078       0x18 obj_cooja/mtype603.a(tcpip.o)
 .debug_ranges  0x0000000000000090       0x28 obj_cooja/mtype603.a(uip-nd6.o)
 .debug_ranges  0x00000000000000b8       0x48 obj_cooja/mtype603.a(sicslowpan.o)
 .debug_ranges  0x0000000000000100       0x30 obj_cooja/mtype603.a(nbr-table.o)

.debug_macro
 *(.debug_macro)

.gnu.attributes
 *(.gnu.attributes)

/DISCARD/
 *(.note.GNU-stack)
 *(.gnu_debuglink)
 *(.gnu.lto_*)
OUTPUT(obj_cooja/mtype603.cooja elf32-i386)
